(lp0
(lp1
F-12.0880546
aF-77.0507123
aa(lp2
F-12.0754842
aF-77.0439545
aa(lp3
F-12.0696332
aF-77.0367853
aa(lp4
F-12.0741905
aF-77.0558257
aa(lp5
F-12.0709119
aF-77.0757414
aa(lp6
F-12.0716789
aF-77.0722837
aa(lp7
F-12.0722013
aF-77.0694503
aa(lp8
F-12.0772214
aF-77.0627848
aa(lp9
F-12.0716307
aF-77.0617144
aa(lp10
F-12.0755462
aF-77.0652855
aa(lp11
F-12.0717582
aF-77.0595989
aa(lp12
F-12.0722105
aF-77.0579809
aa(lp13
F-12.0750978
aF-77.0539645
aa(lp14
F-12.0719475
aF-77.0530146
aa(lp15
F-12.0905718
aF-77.044371
aa(lp16
F-12.089644
aF-77.0445025
aa(lp17
F-12.0805142
aF-77.0627819
aa(lp18
F-12.0801171
aF-77.0486878
aa(lp19
F-12.0892923
aF-77.0401127
aa(lp20
F-12.0671546
aF-77.0474066
aa(lp21
F-12.0735772
aF-77.0599794
aa(lp22
F-12.0746259
aF-77.0490717
aa(lp23
F-12.0616699
aF-77.0528944
aa(lp24
F-12.0936659
aF-77.0658736
aa(lp25
F-12.0934792
aF-77.0660971
aa(lp26
F-12.0712034
aF-77.0739827
aa(lp27
F-12.0715972
aF-77.0726811
aa(lp28
F-12.0826073
aF-77.0458773
aa(lp29
F-12.0708032
aF-77.0407416
aa(lp30
F-12.0754883
aF-77.0677558
aa(lp31
F-12.0720796
aF-77.0413344
aa(lp32
F-12.0727595
aF-77.041624
aa(lp33
F-12.0738196
aF-77.0420388
aa(lp34
F-12.0750641
aF-77.0422005
aa(lp35
F-12.075206
aF-77.0422178
aa(lp36
F-12.07652
aF-77.0423169
aa(lp37
F-12.0775986
aF-77.0423565
aa(lp38
F-12.0790313
aF-77.0423748
aa(lp39
F-12.0795727
aF-77.042389
aa(lp40
F-12.0796949
aF-77.0424008
aa(lp41
F-12.0765411
aF-77.0421958
aa(lp42
F-12.0732721
aF-77.0760217
aa(lp43
F-12.0907267
aF-77.045495
aa(lp44
F-12.0897904
aF-77.0456323
aa(lp45
F-12.0888703
aF-77.0457618
aa(lp46
F-12.0823587
aF-77.0457081
aa(lp47
F-12.0825245
aF-77.0459475
aa(lp48
F-12.0850487
aF-77.0488055
aa(lp49
F-12.07419
aF-77.0728376
aa(lp50
F-12.0716926
aF-77.0554221
aa(lp51
F-12.0801649
aF-77.0385857
aa(lp52
F-12.0858292
aF-77.035437
aa(lp53
F-12.0859453
aF-77.0362879
aa(lp54
F-12.0860617
aF-77.0370997
aa(lp55
F-12.0861732
aF-77.0379153
aa(lp56
F-12.0734348
aF-77.0395525
aa(lp57
F-12.0864267
aF-77.0396169
aa(lp58
F-12.0724139
aF-77.0393941
aa(lp59
F-12.0866461
aF-77.0413034
aa(lp60
F-12.0867565
aF-77.0421199
aa(lp61
F-12.0868732
aF-77.0429221
aa(lp62
F-12.0869861
aF-77.043752
aa(lp63
F-12.0738201
aF-77.0434644
aa(lp64
F-12.0715954
aF-77.0434502
aa(lp65
F-12.0709769
aF-77.0434869
aa(lp66
F-12.0814776
aF-77.0573102
aa(lp67
F-12.0814136
aF-77.0572592
aa(lp68
F-12.0806292
aF-77.0566195
aa(lp69
F-12.0798445
aF-77.0559769
aa(lp70
F-12.0788796
aF-77.0551465
aa(lp71
F-12.0783368
aF-77.0547109
aa(lp72
F-12.0778769
aF-77.0543531
aa(lp73
F-12.0769123
aF-77.0535523
aa(lp74
F-12.075929
aF-77.052745
aa(lp75
F-12.0749363
aF-77.0519232
aa(lp76
F-12.0739505
aF-77.0511095
aa(lp77
F-12.0729606
aF-77.0502868
aa(lp78
F-12.0700163
aF-77.0478732
aa(lp79
F-12.0690451
aF-77.0470644
aa(lp80
F-12.0680519
aF-77.046255
aa(lp81
F-12.06707
aF-77.0454484
aa(lp82
F-12.0660863
aF-77.0446374
aa(lp83
F-12.065726
aF-77.0443304
aa(lp84
F-12.0726703
aF-77.0568329
aa(lp85
F-12.0720957
aF-77.0579333
aa(lp86
F-12.0717462
aF-77.05903
aa(lp87
F-12.0748418
aF-77.0559576
aa(lp88
F-12.0715062
aF-77.0603782
aa(lp89
F-12.0749826
aF-77.0554273
aa(lp90
F-12.0755237
aF-77.066852
aa(lp91
F-12.0717014
aF-77.0625117
aa(lp92
F-12.0717413
aF-77.0394474
aa(lp93
F-12.0723411
aF-77.0673758
aa(lp94
F-12.071142
aF-77.0742699
aa(lp95
F-12.0754874
aF-77.043464
aa(lp96
F-12.075484
aF-77.0429698
aa(lp97
F-12.0756049
aF-77.0551984
aa(lp98
F-12.075232
aF-77.0427323
aa(lp99
F-12.0751072
aF-77.0427279
aa(lp100
F-12.0748318
aF-77.0429788
aa(lp101
F-12.088662
aF-77.04437
aa(lp102
F-12.0748316
aF-77.043956
aa(lp103
F-12.0748675
aF-77.0440372
aa(lp104
F-12.0620313
aF-77.041225
aa(lp105
F-12.0715693
aF-77.0491355
aa(lp106
F-12.0792839
aF-77.0600499
aa(lp107
F-12.0795946
aF-77.0596514
aa(lp108
F-12.0799036
aF-77.0592678
aa(lp109
F-12.0802305
aF-77.0588691
aa(lp110
F-12.0805526
aF-77.0584665
aa(lp111
F-12.081141
aF-77.0476114
aa(lp112
F-12.0793683
aF-77.0476132
aa(lp113
F-12.0924858
aF-77.0509948
aa(lp114
F-12.0734806
aF-77.0702416
aa(lp115
F-12.0804532
aF-77.0609965
aa(lp116
F-12.0676417
aF-77.0381713
aa(lp117
F-12.0697952
aF-77.0378449
aa(lp118
F-12.093538
aF-77.0593982
aa(lp119
F-12.0725637
aF-77.037415
aa(lp120
F-12.0735965
aF-77.0372555
aa(lp121
F-12.0746282
aF-77.0371016
aa(lp122
F-12.0747114
aF-77.0370907
aa(lp123
F-12.0757374
aF-77.0369437
aa(lp124
F-12.0712615
aF-77.0524343
aa(lp125
F-12.0938086
aF-77.0518806
aa(lp126
F-12.0934247
aF-77.0525025
aa(lp127
F-12.0895016
aF-77.0417321
aa(lp128
F-12.0712674
aF-77.0571499
aa(lp129
F-12.0877902
aF-77.0444922
aa(lp130
F-12.0699811
aF-77.0551068
aa(lp131
F-12.0811219
aF-77.0477593
aa(lp132
F-12.0802362
aF-77.0477582
aa(lp133
F-12.0793608
aF-77.0476898
aa(lp134
F-12.0749865
aF-77.0559948
aa(lp135
F-12.0728393
aF-77.0620202
aa(lp136
F-12.0748716
aF-77.0565692
aa(lp137
F-12.0716186
aF-77.0615154
aa(lp138
F-12.0716672
aF-77.0389459
aa(lp139
F-12.074764
aF-77.0571035
aa(lp140
F-12.0849104
aF-77.0364287
aa(lp141
F-12.085028
aF-77.037249
aa(lp142
F-12.0851365
aF-77.0380612
aa(lp143
F-12.0852446
aF-77.0388592
aa(lp144
F-12.0853657
aF-77.039762
aa(lp145
F-12.0854917
aF-77.0406429
aa(lp146
F-12.0856049
aF-77.0414595
aa(lp147
F-12.0857241
aF-77.0422767
aa(lp148
F-12.0858273
aF-77.0430876
aa(lp149
F-12.0859365
aF-77.0439026
aa(lp150
F-12.0860656
aF-77.0447449
aa(lp151
F-12.086251
aF-77.046111
aa(lp152
F-12.079944
aF-77.0394574
aa(lp153
F-12.0809948
aF-77.0602168
aa(lp154
F-12.075496
aF-77.0582081
aa(lp155
F-12.0763161
aF-77.0648227
aa(lp156
F-12.0807046
aF-77.0599168
aa(lp157
F-12.076178
aF-77.0574752
aa(lp158
F-12.0767922
aF-77.056706
aa(lp159
F-12.0760713
aF-77.0392113
aa(lp160
F-12.0735218
aF-77.0389361
aa(lp161
F-12.0740751
aF-77.0589849
aa(lp162
F-12.0645175
aF-77.0402169
aa(lp163
F-12.0625051
aF-77.0416144
aa(lp164
F-12.0843799
aF-77.0616277
aa(lp165
F-12.0633842
aF-77.0405059
aa(lp166
F-12.0709026
aF-77.0753337
aa(lp167
F-12.0681746
aF-77.0614048
aa(lp168
F-12.0749123
aF-77.0586375
aa(lp169
F-12.065633
aF-77.0431745
aa(lp170
F-12.0754123
aF-77.0587028
aa(lp171
F-12.0715299
aF-77.0616895
aa(lp172
F-12.0715145
aF-77.0615057
aa(lp173
F-12.0933667
aF-77.0592184
aa(lp174
F-12.0660029
aF-77.059129
aa(lp175
F-12.0789513
aF-77.044373
aa(lp176
F-12.0779226
aF-77.044422
aa(lp177
F-12.0763025
aF-77.0444685
aa(lp178
F-12.0760734
aF-77.0444663
aa(lp179
F-12.0704612
aF-77.0526099
aa(lp180
F-12.0675588
aF-77.0430249
aa(lp181
F-12.0753927
aF-77.057723
aa(lp182
F-12.0755368
aF-77.0572795
aa(lp183
F-12.0751343
aF-77.0586759
aa(lp184
F-12.0812197
aF-77.0457751
aa(lp185
F-12.0769758
aF-77.0555083
aa(lp186
F-12.0901861
aF-77.0416224
aa(lp187
F-12.080689
aF-77.058302
aa(lp188
F-12.0900782
aF-77.0408027
aa(lp189
F-12.089965
aF-77.0400027
aa(lp190
F-12.0897028
aF-77.0382051
aa(lp191
F-12.0873037
aF-77.0385571
aa(lp192
F-12.0894741
aF-77.0366056
aa(lp193
F-12.0893627
aF-77.0357941
aa(lp194
F-12.0892459
aF-77.0349297
aa(lp195
F-12.0831883
aF-77.0521074
aa(lp196
F-12.0826054
aF-77.0505981
aa(lp197
F-12.0822705
aF-77.0497112
aa(lp198
F-12.0820081
aF-77.0487862
aa(lp199
F-12.0819759
aF-77.0477825
aa(lp200
F-12.0819909
aF-77.0476145
aa(lp201
F-12.0666934
aF-77.0550176
aa(lp202
F-12.0933449
aF-77.0593553
aa(lp203
F-12.0748813
aF-77.0576355
aa(lp204
F-12.0869937
aF-77.0460114
aa(lp205
F-12.0868064
aF-77.0446359
aa(lp206
F-12.0751843
aF-77.0468979
aa(lp207
F-12.1027233
aF-77.0581291
aa(lp208
F-12.08227
aF-77.0459041
aa(lp209
F-12.0920842
aF-77.044156
aa(lp210
F-12.0818661
aF-77.0476105
aa(lp211
F-12.0818512
aF-77.0477614
aa(lp212
F-12.0902963
aF-77.042423
aa(lp213
F-12.0818756
aF-77.0487808
aa(lp214
F-12.0821184
aF-77.0496814
aa(lp215
F-12.0824734
aF-77.0506015
aa(lp216
F-12.0830692
aF-77.0521648
aa(lp217
F-12.0800287
aF-77.0396183
aa(lp218
F-12.0802973
aF-77.0395852
aa(lp219
F-12.0925648
aF-77.0475459
aa(lp220
F-12.091528
aF-77.047682
aa(lp221
F-12.0895497
aF-77.0479781
aa(lp222
F-12.0882915
aF-77.0481592
aa(lp223
F-12.0881743
aF-77.0481805
aa(lp224
F-12.0619569
aF-77.0515926
aa(lp225
F-12.0865779
aF-77.0484169
aa(lp226
F-12.0854927
aF-77.0485846
aa(lp227
F-12.0777711
aF-77.0575225
aa(lp228
F-12.0771817
aF-77.0582797
aa(lp229
F-12.0624501
aF-77.058421
aa(lp230
F-12.0934724
aF-77.0597724
aa(lp231
F-12.0766464
aF-77.0578644
aa(lp232
F-12.0875572
aF-77.0403464
aa(lp233
F-12.0876707
aF-77.0411497
aa(lp234
F-12.0738204
aF-77.0625695
aa(lp235
F-12.0779196
aF-77.0517817
aa(lp236
F-12.0878917
aF-77.042761
aa(lp237
F-12.077761
aF-77.0434085
aa(lp238
F-12.0616882
aF-77.052168
aa(lp239
F-12.0646864
aF-77.041499
aa(lp240
F-12.0733604
aF-77.0707801
aa(lp241
F-12.0662471
aF-77.049329
aa(lp242
F-12.064587
aF-77.0578101
aa(lp243
F-12.0739847
aF-77.0574312
aa(lp244
F-12.0894599
aF-77.0473985
aa(lp245
F-12.0740873
aF-77.0569639
aa(lp246
F-12.0931572
aF-77.0403515
aa(lp247
F-12.0657251
aF-77.0582351
aa(lp248
F-12.0718283
aF-77.0546099
aa(lp249
F-12.073696
aF-77.0625021
aa(lp250
F-12.0736339
aF-77.062554
aa(lp251
F-12.0721399
aF-77.0640316
aa(lp252
F-12.0628852
aF-77.0565543
aa(lp253
F-12.0633756
aF-77.0553488
aa(lp254
F-12.0634976
aF-77.0424305
aa(lp255
F-12.0893805
aF-77.0409048
aa(lp256
F-12.0895433
aF-77.0420047
aa(lp257
F-12.0892183
aF-77.0392159
aa(lp258
F-12.0898309
aF-77.0391145
aa(lp259
F-12.0618628
aF-77.0517133
aa(lp260
F-12.0724887
aF-77.0508901
aa(lp261
F-12.0720178
aF-77.0701139
aa(lp262
F-12.0736218
aF-77.0382017
aa(lp263
F-12.0708335
aF-77.0756855
aa(lp264
F-12.0632553
aF-77.0465988
aa(lp265
F-12.0653069
aF-77.059708
aa(lp266
F-12.0933057
aF-77.0607873
aa(lp267
F-12.0736134
aF-77.0568571
aa(lp268
F-12.063859
aF-77.0463327
aa(lp269
F-12.0709215
aF-77.0757005
aa(lp270
F-12.0646554
aF-77.0453381
aa(lp271
F-12.0635698
aF-77.0531458
aa(lp272
F-12.0818047
aF-77.0552614
aa(lp273
F-12.0634639
aF-77.0567942
aa(lp274
F-12.0639419
aF-77.0555895
aa(lp275
F-12.063874
aF-77.0569667
aa(lp276
F-12.0645046
aF-77.057219
aa(lp277
F-12.0648475
aF-77.0584681
aa(lp278
F-12.0698273
aF-77.0637242
aa(lp279
F-12.0655652
aF-77.0587311
aa(lp280
F-12.0716486
aF-77.0719307
aa(lp281
F-12.0627362
aF-77.0437682
aa(lp282
F-12.0736281
aF-77.0544013
aa(lp283
F-12.0736995
aF-77.0684279
aa(lp284
F-12.0795627
aF-77.0422772
aa(lp285
F-12.0639512
aF-77.0594092
aa(lp286
F-12.0659394
aF-77.0570912
aa(lp287
F-12.0675122
aF-77.0628902
aa(lp288
F-12.0675423
aF-77.0637913
aa(lp289
F-12.0675956
aF-77.0656644
aa(lp290
F-12.0787607
aF-77.0589443
aa(lp291
F-12.0677123
aF-77.065668
aa(lp292
F-12.0644279
aF-77.0422819
aa(lp293
F-12.0643312
aF-77.0591213
aa(lp294
F-12.0795437
aF-77.0596106
aa(lp295
F-12.0653139
aF-77.0578864
aa(lp296
F-12.0803991
aF-77.0602937
aa(lp297
F-12.067786
aF-77.0737454
aa(lp298
F-12.0790522
aF-77.0569608
aa(lp299
F-12.0813423
aF-77.0591176
aa(lp300
F-12.0656414
aF-77.0574872
aa(lp301
F-12.0824609
aF-77.0456377
aa(lp302
F-12.0751821
aF-77.0417102
aa(lp303
F-12.0751399
aF-77.040735
aa(lp304
F-12.075077
aF-77.0397865
aa(lp305
F-12.0750128
aF-77.0391544
aa(lp306
F-12.0637426
aF-77.051548
aa(lp307
F-12.0738383
aF-77.0545755
aa(lp308
F-12.0786708
aF-77.0607245
aa(lp309
F-12.0868889
aF-77.050271
aa(lp310
F-12.081021
aF-77.0595214
aa(lp311
F-12.0645492
aF-77.0505874
aa(lp312
F-12.0801717
aF-77.0588187
aa(lp313
F-12.0811596
aF-77.0468417
aa(lp314
F-12.0793761
aF-77.0581719
aa(lp315
F-12.0647602
aF-77.0394188
aa(lp316
F-12.0648097
aF-77.0390468
aa(lp317
F-12.0804045
aF-77.0403955
aa(lp318
F-12.0798986
aF-77.0404702
aa(lp319
F-12.0770951
aF-77.0553572
aa(lp320
F-12.0663401
aF-77.0483864
aa(lp321
F-12.0657846
aF-77.0499317
aa(lp322
F-12.085315
aF-77.0509588
aa(lp323
F-12.0751005
aF-77.0538721
aa(lp324
F-12.0790212
aF-77.0571891
aa(lp325
F-12.0783643
aF-77.0580112
aa(lp326
F-12.0649844
aF-77.0435792
aa(lp327
F-12.0640753
aF-77.0532148
aa(lp328
F-12.0724506
aF-77.0665088
aa(lp329
F-12.0777815
aF-77.0587673
aa(lp330
F-12.0723482
aF-77.0665131
aa(lp331
F-12.0647394
aF-77.0523994
aa(lp332
F-12.0668105
aF-77.0597953
aa(lp333
F-12.0822285
aF-77.0525164
aa(lp334
F-12.0655496
aF-77.0514277
aa(lp335
F-12.0818774
aF-77.0524395
aa(lp336
F-12.0699491
aF-77.0623616
aa(lp337
F-12.0813513
aF-77.0520619
aa(lp338
F-12.0649291
aF-77.0561685
aa(lp339
F-12.0663687
aF-77.0504289
aa(lp340
F-12.0660306
aF-77.0568945
aa(lp341
F-12.0852956
aF-77.0507387
aa(lp342
F-12.068136
aF-77.048209
aa(lp343
F-12.0739817
aF-77.0735598
aa(lp344
F-12.0644996
aF-77.0393484
aa(lp345
F-12.0772521
aF-77.0645098
aa(lp346
F-12.0695645
aF-77.0504907
aa(lp347
F-12.0648852
aF-77.0574817
aa(lp348
F-12.0643778
aF-77.0581767
aa(lp349
F-12.063802
aF-77.0598664
aa(lp350
F-12.091602
aF-77.0624
aa(lp351
F-12.0666233
aF-77.0561488
aa(lp352
F-12.0782242
aF-77.0539381
aa(lp353
F-12.0736881
aF-77.0745486
aa(lp354
F-12.0653726
aF-77.0495811
aa(lp355
F-12.0933988
aF-77.0419605
aa(lp356
F-12.0651847
aF-77.055549
aa(lp357
F-12.0706528
aF-77.0523671
aa(lp358
F-12.0907619
aF-77.0347129
aa(lp359
F-12.0715104
aF-77.0439532
aa(lp360
F-12.0910024
aF-77.0363658
aa(lp361
F-12.0911211
aF-77.0371766
aa(lp362
F-12.0912178
aF-77.0379828
aa(lp363
F-12.0914779
aF-77.0397666
aa(lp364
F-12.0915815
aF-77.0405743
aa(lp365
F-12.0916949
aF-77.0413825
aa(lp366
F-12.0918115
aF-77.0422132
aa(lp367
F-12.0919267
aF-77.0430243
aa(lp368
F-12.0677282
aF-77.0515809
aa(lp369
F-12.0922433
aF-77.0452901
aa(lp370
F-12.0809512
aF-77.0503465
aa(lp371
F-12.0927238
aF-77.0486626
aa(lp372
F-12.092902
aF-77.0497935
aa(lp373
F-12.0930733
aF-77.0509173
aa(lp374
F-12.0802747
aF-77.0660165
aa(lp375
F-12.0871489
aF-77.0471695
aa(lp376
F-12.0692854
aF-77.0528827
aa(lp377
F-12.0757085
aF-77.0604385
aa(lp378
F-12.067333
aF-77.051237
aa(lp379
F-12.0653517
aF-77.0475653
aa(lp380
F-12.0861739
aF-77.0455979
aa(lp381
F-12.0643961
aF-77.0467821
aa(lp382
F-12.0681974
aF-77.061185
aa(lp383
F-12.0679409
aF-77.0606576
aa(lp384
F-12.0674868
aF-77.0604885
aa(lp385
F-12.0667859
aF-77.0610632
aa(lp386
F-12.0607195
aF-77.0418043
aa(lp387
F-12.0851707
aF-77.0462488
aa(lp388
F-12.0678925
aF-77.0618181
aa(lp389
F-12.0666933
aF-77.0540292
aa(lp390
F-12.0849982
aF-77.0449052
aa(lp391
F-12.0766837
aF-77.0625765
aa(lp392
F-12.0627034
aF-77.0506865
aa(lp393
F-12.0836848
aF-77.0497739
aa(lp394
F-12.0837546
aF-77.0488736
aa(lp395
F-12.0806882
aF-77.0641557
aa(lp396
F-12.0833709
aF-77.0607851
aa(lp397
F-12.0742116
aF-77.0620185
aa(lp398
F-12.0728791
aF-77.0617646
aa(lp399
F-12.0847598
aF-77.0432398
aa(lp400
F-12.0937058
aF-77.0622049
aa(lp401
F-12.0929579
aF-77.0620233
aa(lp402
F-12.0927549
aF-77.0619689
aa(lp403
F-12.0684102
aF-77.062963
aa(lp404
F-12.065919
aF-77.0594005
aa(lp405
F-12.0919946
aF-77.05159
aa(lp406
F-12.0920224
aF-77.0510879
aa(lp407
F-12.0913477
aF-77.0511849
aa(lp408
F-12.0898452
aF-77.0504167
aa(lp409
F-12.0616701
aF-77.0527926
aa(lp410
F-12.066092
aF-77.0588549
aa(lp411
F-12.061706
aF-77.0520743
aa(lp412
F-12.0885066
aF-77.0497434
aa(lp413
F-12.0802467
aF-77.0660846
aa(lp414
F-12.0635186
aF-77.0497231
aa(lp415
F-12.0643753
aF-77.0487386
aa(lp416
F-12.0661593
aF-77.0465669
aa(lp417
F-12.0817891
aF-77.0569165
aa(lp418
F-12.0790544
aF-77.061736
aa(lp419
F-12.0810866
aF-77.0487474
aa(lp420
F-12.0852326
aF-77.0498534
aa(lp421
F-12.0634415
aF-77.0479411
aa(lp422
F-12.0672653
aF-77.0472578
aa(lp423
F-12.0665186
aF-77.0522306
aa(lp424
F-12.0685405
aF-77.0539524
aa(lp425
F-12.074136
aF-77.0601001
aa(lp426
F-12.068231
aF-77.0649334
aa(lp427
F-12.0790569
aF-77.0585707
aa(lp428
F-12.079711
aF-77.0577603
aa(lp429
F-12.0728885
aF-77.0589211
aa(lp430
F-12.0653042
aF-77.0536705
aa(lp431
F-12.0653916
aF-77.0535993
aa(lp432
F-12.0683115
aF-77.0500182
aa(lp433
F-12.0701646
aF-77.0533273
aa(lp434
F-12.0691224
aF-77.0490232
aa(lp435
F-12.0956916
aF-77.0579553
aa(lp436
F-12.0952843
aF-77.0577747
aa(lp437
F-12.0951467
aF-77.0577192
aa(lp438
F-12.0947452
aF-77.0575231
aa(lp439
F-12.0824992
aF-77.0506717
aa(lp440
F-12.0689948
aF-77.0639114
aa(lp441
F-12.0683282
aF-77.0638525
aa(lp442
F-12.0807314
aF-77.0528464
aa(lp443
F-12.0708627
aF-77.0651747
aa(lp444
F-12.0801021
aF-77.0536247
aa(lp445
F-12.0784695
aF-77.055674
aa(lp446
F-12.0780721
aF-77.0561539
aa(lp447
F-12.0871633
aF-77.0573772
aa(lp448
F-12.0779813
aF-77.0521913
aa(lp449
F-12.0761043
aF-77.0545486
aa(lp450
F-12.0910256
aF-77.0560886
aa(lp451
F-12.0799667
aF-77.0424467
aa(lp452
F-12.0805585
aF-77.0423653
aa(lp453
F-12.0802539
aF-77.0570778
aa(lp454
F-12.0880825
aF-77.0508511
aa(lp455
F-12.0701664
aF-77.0637491
aa(lp456
F-12.0674914
aF-77.0530522
aa(lp457
F-12.068309
aF-77.052075
aa(lp458
F-12.0720479
aF-77.0641911
aa(lp459
F-12.0702254
aF-77.0537983
aa(lp460
F-12.0744747
aF-77.0607002
aa(lp461
F-12.070025
aF-77.0615408
aa(lp462
F-12.0880953
aF-77.0506103
aa(lp463
F-12.0731464
aF-77.0604162
aa(lp464
F-12.0702947
aF-77.0623821
aa(lp465
F-12.0805065
aF-77.0510715
aa(lp466
F-12.070372
aF-77.0615736
aa(lp467
F-12.0691373
aF-77.0622852
aa(lp468
F-12.0673406
aF-77.049204
aa(lp469
F-12.0684822
aF-77.0622293
aa(lp470
F-12.065271
aF-77.0456642
aa(lp471
F-12.0702867
aF-77.051632
aa(lp472
F-12.0750382
aF-77.041733
aa(lp473
F-12.0851097
aF-77.0457564
aa(lp474
F-12.0749876
aF-77.0407469
aa(lp475
F-12.0848787
aF-77.044053
aa(lp476
F-12.0749097
aF-77.0391373
aa(lp477
F-12.0846478
aF-77.0424217
aa(lp478
F-12.0845409
aF-77.0416163
aa(lp479
F-12.0844198
aF-77.0407968
aa(lp480
F-12.0843009
aF-77.0399133
aa(lp481
F-12.0841758
aF-77.0390161
aa(lp482
F-12.0745736
aF-77.0601998
aa(lp483
F-12.0840589
aF-77.0382269
aa(lp484
F-12.0839465
aF-77.0374051
aa(lp485
F-12.0838437
aF-77.0365894
aa(lp486
F-12.0837275
aF-77.0357449
aa(lp487
F-12.0816313
aF-77.0590893
aa(lp488
F-12.0732485
aF-77.0599091
aa(lp489
F-12.0676456
aF-77.0628918
aa(lp490
F-12.0896124
aF-77.0425134
aa(lp491
F-12.0743184
aF-77.0591864
aa(lp492
F-12.0795246
aF-77.050253
aa(lp493
F-12.0652902
aF-77.0457639
aa(lp494
F-12.0653067
aF-77.045874
aa(lp495
F-12.0610747
aF-77.0423976
aa(lp496
F-12.0710766
aF-77.0506429
aa(lp497
F-12.0839608
aF-77.0380561
aa(lp498
F-12.0841037
aF-77.0390266
aa(lp499
F-12.0632762
aF-77.0437794
aa(lp500
F-12.0842099
aF-77.0398473
aa(lp501
F-12.0843141
aF-77.0406248
aa(lp502
F-12.0844863
aF-77.041832
aa(lp503
F-12.0805901
aF-77.0540321
aa(lp504
F-12.0845825
aF-77.0426213
aa(lp505
F-12.0846482
aF-77.0431086
aa(lp506
F-12.0781531
aF-77.0519663
aa(lp507
F-12.0847982
aF-77.0441657
aa(lp508
F-12.0771709
aF-77.0511709
aa(lp509
F-12.0849542
aF-77.0452403
aa(lp510
F-12.0850849
aF-77.046261
aa(lp511
F-12.0742234
aF-77.048728
aa(lp512
F-12.0738003
aF-77.0483715
aa(lp513
F-12.0732404
aF-77.0479193
aa(lp514
F-12.0722735
aF-77.0471269
aa(lp515
F-12.0712747
aF-77.046316
aa(lp516
F-12.0702846
aF-77.045505
aa(lp517
F-12.0693116
aF-77.0446829
aa(lp518
F-12.0790007
aF-77.0433291
aa(lp519
F-12.0700842
aF-77.0673091
aa(lp520
F-12.0722988
aF-77.0659851
aa(lp521
F-12.0707594
aF-77.0591428
aa(lp522
F-12.0612541
aF-77.0422408
aa(lp523
F-12.0688984
aF-77.0649992
aa(lp524
F-12.0692151
aF-77.0614674
aa(lp525
F-12.0734307
aF-77.0589415
aa(lp526
F-12.0632169
aF-77.0438543
aa(lp527
F-12.0798625
aF-77.0592102
aa(lp528
F-12.0763077
aF-77.0563271
aa(lp529
F-12.0723373
aF-77.0682752
aa(lp530
F-12.0745124
aF-77.0474381
aa(lp531
F-12.0794634
aF-77.0467722
aa(lp532
F-12.0806266
aF-77.0582502
aa(lp533
F-12.0750114
aF-77.0539021
aa(lp534
F-12.0644032
aF-77.0413348
aa(lp535
F-12.0756949
aF-77.0570792
aa(lp536
F-12.0791256
aF-77.0528001
aa(lp537
F-12.0841026
aF-77.047437
aa(lp538
F-12.0825903
aF-77.0359153
aa(lp539
F-12.0827711
aF-77.0371918
aa(lp540
F-12.0784098
aF-77.0567052
aa(lp541
F-12.0847176
aF-77.0436027
aa(lp542
F-12.0829687
aF-77.0386896
aa(lp543
F-12.0830492
aF-77.0391814
aa(lp544
F-12.0831651
aF-77.0399941
aa(lp545
F-12.0832811
aF-77.0407739
aa(lp546
F-12.0834344
aF-77.0419995
aa(lp547
F-12.0835459
aF-77.0427842
aa(lp548
F-12.0836091
aF-77.0432612
aa(lp549
F-12.0836736
aF-77.0437475
aa(lp550
F-12.0720784
aF-77.0696166
aa(lp551
F-12.0838397
aF-77.0449007
aa(lp552
F-12.0838999
aF-77.04538
aa(lp553
F-12.0848862
aF-77.0447319
aa(lp554
F-12.084052
aF-77.046412
aa(lp555
F-12.0761863
aF-77.0503527
aa(lp556
F-12.0797483
aF-77.0520122
aa(lp557
F-12.0918491
aF-77.0499575
aa(lp558
F-12.0778158
aF-77.0503909
aa(lp559
F-12.0777007
aF-77.050289
aa(lp560
F-12.0768243
aF-77.0495652
aa(lp561
F-12.0758306
aF-77.0487535
aa(lp562
F-12.0748541
aF-77.0479398
aa(lp563
F-12.0744063
aF-77.047587
aa(lp564
F-12.0700956
aF-77.0498239
aa(lp565
F-12.0750593
aF-77.0591492
aa(lp566
F-12.0827404
aF-77.0636763
aa(lp567
F-12.070209
aF-77.0496811
aa(lp568
F-12.0677517
aF-77.0675704
aa(lp569
F-12.0911267
aF-77.0559413
aa(lp570
F-12.0794358
aF-77.0619262
aa(lp571
F-12.0796445
aF-77.0612637
aa(lp572
F-12.0816697
aF-77.0638817
aa(lp573
F-12.0843582
aF-77.0635932
aa(lp574
F-12.0739174
aF-77.0666805
aa(lp575
F-12.0746739
aF-77.0710105
aa(lp576
F-12.0913789
aF-77.0465656
aa(lp577
F-12.0687622
aF-77.0444408
aa(lp578
F-12.0908773
aF-77.0355409
aa(lp579
F-12.0714184
aF-77.0729599
aa(lp580
F-12.0760032
aF-77.0547014
aa(lp581
F-12.0936647
aF-77.0439142
aa(lp582
F-12.094744
aF-77.0508068
aa(lp583
F-12.0916644
aF-77.0465235
aa(lp584
F-12.0908836
aF-77.0466341
aa(lp585
F-12.0899435
aF-77.0467705
aa(lp586
F-12.0893858
aF-77.0468501
aa(lp587
F-12.0890488
aF-77.0468982
aa(lp588
F-12.0881284
aF-77.0470296
aa(lp589
F-12.0879973
aF-77.0470487
aa(lp590
F-12.0748177
aF-77.0434856
aa(lp591
F-12.0864177
aF-77.0472865
aa(lp592
F-12.0853145
aF-77.0474281
aa(lp593
F-12.0710178
aF-77.0748048
aa(lp594
F-12.0676586
aF-77.0685238
aa(lp595
F-12.0749306
aF-77.0397895
aa(lp596
F-12.0921961
aF-77.0543586
aa(lp597
F-12.072951
aF-77.0448523
aa(lp598
F-12.0787304
aF-77.0622849
aa(lp599
F-12.0727146
aF-77.0447383
aa(lp600
F-12.0724468
aF-77.0447608
aa(lp601
F-12.0794173
aF-77.0611347
aa(lp602
F-12.0722512
aF-77.0451406
aa(lp603
F-12.0727032
aF-77.0453372
aa(lp604
F-12.0650641
aF-77.0396548
aa(lp605
F-12.0715237
aF-77.0724831
aa(lp606
F-12.0830465
aF-77.0457554
aa(lp607
F-12.0830784
aF-77.0449946
aa(lp608
F-12.0831344
aF-77.0437253
aa(lp609
F-12.0830297
aF-77.0428356
aa(lp610
F-12.0828942
aF-77.0419759
aa(lp611
F-12.0825094
aF-77.0408867
aa(lp612
F-12.082248
aF-77.0401322
aa(lp613
F-12.0819835
aF-77.0393377
aa(lp614
F-12.0818293
aF-77.0383532
aa(lp615
F-12.0817668
aF-77.0378506
aa(lp616
F-12.0816964
aF-77.0373267
aa(lp617
F-12.0815213
aF-77.036064
aa(lp618
F-12.0762503
aF-77.0523354
aa(lp619
F-12.0763663
aF-77.0478935
aa(lp620
F-12.0748051
aF-77.0383648
aa(lp621
F-12.0650683
aF-77.0442045
aa(lp622
F-12.0737577
aF-77.0626335
aa(lp623
F-12.0772243
aF-77.0531485
aa(lp624
F-12.0792032
aF-77.048932
aa(lp625
F-12.0740643
aF-77.0643182
aa(lp626
F-12.0738663
aF-77.0638317
aa(lp627
F-12.0736328
aF-77.0634808
aa(lp628
F-12.0732569
aF-77.0631103
aa(lp629
F-12.0731519
aF-77.0630188
aa(lp630
F-12.0898841
aF-77.0502221
aa(lp631
F-12.0895794
aF-77.0502736
aa(lp632
F-12.0718104
aF-77.062524
aa(lp633
F-12.0781308
aF-77.0532555
aa(lp634
F-12.0796838
aF-77.0422899
aa(lp635
F-12.0853249
aF-77.062395
aa(lp636
F-12.0794626
aF-77.0645622
aa(lp637
F-12.0742633
aF-77.0418616
aa(lp638
F-12.075107
aF-77.0538161
aa(lp639
F-12.0711226
aF-77.0505827
aa(lp640
F-12.0738256
aF-77.0417171
aa(lp641
F-12.0738249
aF-77.0407499
aa(lp642
F-12.0834167
aF-77.0628256
aa(lp643
F-12.082036
aF-77.0616812
aa(lp644
F-12.0897079
aF-77.0490891
aa(lp645
F-12.082625
aF-77.0609385
aa(lp646
F-12.0830092
aF-77.0612546
aa(lp647
F-12.0738083
aF-77.0605591
aa(lp648
F-12.0840165
aF-77.0620815
aa(lp649
F-12.080385
aF-77.0512313
aa(lp650
F-12.0793891
aF-77.0504058
aa(lp651
F-12.0784441
aF-77.0495977
aa(lp652
F-12.0764701
aF-77.0479754
aa(lp653
F-12.0763383
aF-77.0480139
aa(lp654
F-12.0751927
aF-77.0476594
aa(lp655
F-12.0725895
aF-77.0637361
aa(lp656
F-12.0738117
aF-77.04721
aa(lp657
F-12.0822336
aF-77.0583457
aa(lp658
F-12.0884666
aF-77.0492979
aa(lp659
F-12.0830577
aF-77.0592844
aa(lp660
F-12.0831834
aF-77.0591283
aa(lp661
F-12.0632954
aF-77.057217
aa(lp662
F-12.0711069
aF-77.0748706
aa(lp663
F-12.0911769
aF-77.0431326
aa(lp664
F-12.0904265
aF-77.0432505
aa(lp665
F-12.0956708
aF-77.0569851
aa(lp666
F-12.0955458
aF-77.0569128
aa(lp667
F-12.095135
aF-77.0567039
aa(lp668
F-12.0942082
aF-77.0562048
aa(lp669
F-12.0762883
aF-77.0460435
aa(lp670
F-12.0752012
aF-77.0460358
aa(lp671
F-12.0737945
aF-77.0460222
aa(lp672
F-12.0725477
aF-77.0570582
aa(lp673
F-12.0784692
aF-77.0632111
aa(lp674
F-12.0874837
aF-77.0617102
aa(lp675
F-12.0639853
aF-77.0550282
aa(lp676
F-12.0857573
aF-77.0641112
aa(lp677
F-12.0748085
aF-77.0704745
aa(lp678
F-12.0824005
aF-77.0620065
aa(lp679
F-12.0773637
aF-77.0571831
aa(lp680
F-12.0619863
aF-77.0483888
aa(lp681
F-12.0786123
aF-77.0608512
aa(lp682
F-12.0676387
aF-77.0619354
aa(lp683
F-12.0674555
aF-77.061954
aa(lp684
F-12.0775811
aF-77.0617426
aa(lp685
F-12.0829028
aF-77.0381992
aa(lp686
F-12.0787344
aF-77.0607522
aa(lp687
F-12.0710721
aF-77.0399833
aa(lp688
F-12.0619514
aF-77.048046
aa(lp689
F-12.0738191
aF-77.0424744
aa(lp690
F-12.0727421
aF-77.0419317
aa(lp691
F-12.0720142
aF-77.0415564
aa(lp692
F-12.0707665
aF-77.0409089
aa(lp693
F-12.0693012
aF-77.0508297
aa(lp694
F-12.0879405
aF-77.0425992
aa(lp695
F-12.0707797
aF-77.0434399
aa(lp696
F-12.0915116
aF-77.0453921
aa(lp697
F-12.0913437
aF-77.0442615
aa(lp698
F-12.0839868
aF-77.0459797
aa(lp699
F-12.0743726
aF-77.062051
aa(lp700
F-12.0712761
aF-77.0535306
aa(lp701
F-12.0799486
aF-77.0495439
aa(lp702
F-12.0790733
aF-77.0488284
aa(lp703
F-12.0788068
aF-77.0486139
aa(lp704
F-12.078076
aF-77.047999
aa(lp705
F-12.077257
aF-77.0473646
aa(lp706
F-12.0696658
aF-77.06691
aa(lp707
F-12.0812123
aF-77.0384437
aa(lp708
F-12.0813625
aF-77.0394289
aa(lp709
F-12.0814706
aF-77.0402322
aa(lp710
F-12.0815823
aF-77.0410186
aa(lp711
F-12.0816915
aF-77.0418838
aa(lp712
F-12.0896096
aF-77.0442333
aa(lp713
F-12.0797577
aF-77.0443326
aa(lp714
F-12.0795977
aF-77.0457149
aa(lp715
F-12.077733
aF-77.0504953
aa(lp716
F-12.0751159
aF-77.053736
aa(lp717
F-12.0700155
aF-77.0546284
aa(lp718
F-12.0979045
aF-77.0557677
aa(lp719
F-12.0880296
aF-77.0506997
aa(lp720
F-12.0800676
aF-77.0378805
aa(lp721
F-12.0879577
aF-77.0506629
aa(lp722
F-12.0635482
aF-77.0578066
aa(lp723
F-12.1026853
aF-77.0582279
aa(lp724
F-12.0731532
aF-77.0521159
aa(lp725
F-12.0929048
aF-77.0592669
aa(lp726
F-12.0763185
aF-77.0481261
aa(lp727
F-12.0763319
aF-77.0469061
aa(lp728
F-12.0762458
aF-77.0450908
aa(lp729
F-12.0762859
aF-77.0446555
aa(lp730
F-12.0764116
aF-77.0434812
aa(lp731
F-12.0980204
aF-77.0558173
aa(lp732
F-12.0692109
aF-77.0545406
aa(lp733
F-12.0655077
aF-77.0564128
aa(lp734
F-12.0639054
aF-77.0409263
aa(lp735
F-12.0876437
aF-77.0601942
aa(lp736
F-12.0631308
aF-77.0576143
aa(lp737
F-12.0713029
aF-77.0740051
aa(lp738
F-12.0707132
aF-77.0566506
aa(lp739
F-12.0705448
aF-77.0557602
aa(lp740
F-12.0696739
aF-77.0559317
aa(lp741
F-12.0845661
aF-77.0418215
aa(lp742
F-12.0952397
aF-77.067185
aa(lp743
F-12.0944611
aF-77.066505
aa(lp744
F-12.0928935
aF-77.065221
aa(lp745
F-12.0892399
aF-77.0622059
aa(lp746
F-12.0888129
aF-77.0610891
aa(lp747
F-12.070537
aF-77.0552056
aa(lp748
F-12.0698647
aF-77.0604083
aa(lp749
F-12.0722279
aF-77.0646756
aa(lp750
F-12.0727089
aF-77.0465937
aa(lp751
F-12.0710213
aF-77.048694
aa(lp752
F-12.0751928
aF-77.0693651
aa(lp753
F-12.0653267
aF-77.0457135
aa(lp754
F-12.0936135
aF-77.0577932
aa(lp755
F-12.0634755
aF-77.059861
aa(lp756
F-12.0929371
aF-77.0386507
aa(lp757
F-12.0635802
aF-77.0598928
aa(lp758
F-12.0916664
aF-77.0635438
aa(lp759
F-12.0946626
aF-77.0624169
aa(lp760
F-12.0879763
aF-77.0458711
aa(lp761
F-12.0862875
aF-77.0387062
aa(lp762
F-12.0732021
aF-77.0395201
aa(lp763
F-12.0865487
aF-77.0404912
aa(lp764
F-12.0734708
aF-77.0604862
aa(lp765
F-12.0907013
aF-77.0647455
aa(lp766
F-12.0870992
aF-77.0445929
aa(lp767
F-12.0740146
aF-77.049846
aa(lp768
F-12.070412
aF-77.0404196
aa(lp769
F-12.0708778
aF-77.0407765
aa(lp770
F-12.0729199
aF-77.0581015
aa(lp771
F-12.0664167
aF-77.0585189
aa(lp772
F-12.0898595
aF-77.0658342
aa(lp773
F-12.0846686
aF-77.063216
aa(lp774
F-12.0705144
aF-77.0406047
aa(lp775
F-12.0650641
aF-77.0435695
aa(lp776
F-12.0827097
aF-77.0616252
aa(lp777
F-12.0784056
aF-77.0613518
aa(lp778
F-12.0757466
aF-77.0561793
aa(lp779
F-12.0736967
aF-77.0557332
aa(lp780
F-12.0736
aF-77.0556729
aa(lp781
F-12.0882379
aF-77.0422006
aa(lp782
F-12.0733797
aF-77.0556315
aa(lp783
F-12.0749228
aF-77.0631968
aa(lp784
F-12.085092
aF-77.0486916
aa(lp785
F-12.0717115
aF-77.0553316
aa(lp786
F-12.0722091
aF-77.0653025
aa(lp787
F-12.0948061
aF-77.0554017
aa(lp788
F-12.0943796
aF-77.0562987
aa(lp789
F-12.0853687
aF-77.0510586
aa(lp790
F-12.0851335
aF-77.0488923
aa(lp791
F-12.0921857
aF-77.0632354
aa(lp792
F-12.0681103
aF-77.0591745
aa(lp793
F-12.068147
aF-77.0588884
aa(lp794
F-12.0687571
aF-77.0582778
aa(lp795
F-12.0683532
aF-77.0583676
aa(lp796
F-12.0950575
aF-77.0544348
aa(lp797
F-12.085888
aF-77.062889
aa(lp798
F-12.0890879
aF-77.037495
aa(lp799
F-12.0889643
aF-77.0366787
aa(lp800
F-12.091517
aF-77.0615047
aa(lp801
F-12.0888526
aF-77.0358663
aa(lp802
F-12.0819973
aF-77.0645888
aa(lp803
F-12.0705075
aF-77.0579058
aa(lp804
F-12.0939752
aF-77.0520114
aa(lp805
F-12.0766103
aF-77.0642366
aa(lp806
F-12.0672362
aF-77.0545455
aa(lp807
F-12.0671221
aF-77.0581481
aa(lp808
F-12.0919628
aF-77.0600998
aa(lp809
F-12.0842472
aF-77.0516563
aa(lp810
F-12.0841801
aF-77.0515619
aa(lp811
F-12.0708403
aF-77.0552595
aa(lp812
F-12.0677805
aF-77.0736096
aa(lp813
F-12.0735419
aF-77.0557471
aa(lp814
F-12.0792551
aF-77.0486395
aa(lp815
F-12.0688821
aF-77.0525415
aa(lp816
F-12.0714013
aF-77.0577117
aa(lp817
F-12.0757835
aF-77.0607736
aa(lp818
F-12.0707336
aF-77.0590133
aa(lp819
F-12.0760615
aF-77.0593188
aa(lp820
F-12.0703877
aF-77.057344
aa(lp821
F-12.070274
aF-77.0567526
aa(lp822
F-12.0701093
aF-77.0558442
aa(lp823
F-12.0639863
aF-77.0428409
aa(lp824
F-12.0784352
aF-77.0593304
aa(lp825
F-12.0699505
aF-77.0550057
aa(lp826
F-12.0711391
aF-77.0565553
aa(lp827
F-12.0692445
aF-77.0488713
aa(lp828
F-12.0719169
aF-77.0588859
aa(lp829
F-12.0717974
aF-77.0588838
aa(lp830
F-12.070927
aF-77.0556671
aa(lp831
F-12.0738526
aF-77.0580218
aa(lp832
F-12.0698419
aF-77.059178
aa(lp833
F-12.0681764
aF-77.0481541
aa(lp834
F-12.0691041
aF-77.0594485
aa(lp835
F-12.0853803
aF-77.0622532
aa(lp836
F-12.0678414
aF-77.0605866
aa(lp837
F-12.0756607
aF-77.056734
aa(lp838
F-12.0778246
aF-77.0610411
aa(lp839
F-12.0840504
aF-77.0639848
aa(lp840
F-12.0831158
aF-77.063209
aa(lp841
F-12.0820971
aF-77.0623891
aa(lp842
F-12.08009
aF-77.0606932
aa(lp843
F-12.0792256
aF-77.0600099
aa(lp844
F-12.0787386
aF-77.0650883
aa(lp845
F-12.0800766
aF-77.063005
aa(lp846
F-12.0691707
aF-77.0595653
aa(lp847
F-12.0749052
aF-77.0632702
aa(lp848
F-12.0698679
aF-77.0592979
aa(lp849
F-12.0937852
aF-77.0570768
aa(lp850
F-12.0812294
aF-77.0532446
aa(lp851
F-12.0727128
aF-77.0468834
aa(lp852
F-12.0681269
aF-77.0572096
aa(lp853
F-12.0846734
aF-77.0426083
aa(lp854
F-12.069851
aF-77.0615267
aa(lp855
F-12.0845396
aF-77.0615697
aa(lp856
F-12.0698536
aF-77.0613558
aa(lp857
F-12.0852477
aF-77.0636894
aa(lp858
F-12.0697271
aF-77.0586162
aa(lp859
F-12.0696212
aF-77.0580892
aa(lp860
F-12.0687909
aF-77.0555037
aa(lp861
F-12.0840567
aF-77.0516365
aa(lp862
F-12.0847796
aF-77.0525582
aa(lp863
F-12.0856988
aF-77.0536999
aa(lp864
F-12.0866223
aF-77.0548543
aa(lp865
F-12.0873772
aF-77.0557893
aa(lp866
F-12.0673016
aF-77.0605127
aa(lp867
F-12.0884917
aF-77.0567166
aa(lp868
F-12.0688463
aF-77.0570623
aa(lp869
F-12.0698415
aF-77.0568481
aa(lp870
F-12.069522
aF-77.0575335
aa(lp871
F-12.0866327
aF-77.0631698
aa(lp872
F-12.0694066
aF-77.0569514
aa(lp873
F-12.0692203
aF-77.0560159
aa(lp874
F-12.0727599
aF-77.056898
aa(lp875
F-12.0691158
aF-77.0554487
aa(lp876
F-12.0690263
aF-77.0549269
aa(lp877
F-12.0750388
aF-77.0468968
aa(lp878
F-12.0737912
aF-77.0468855
aa(lp879
F-12.0724711
aF-77.0468895
aa(lp880
F-12.0687689
aF-77.0589613
aa(lp881
F-12.0755659
aF-77.0644317
aa(lp882
F-12.0681503
aF-77.0560825
aa(lp883
F-12.0755385
aF-77.0658946
aa(lp884
F-12.0634352
aF-77.044349
aa(lp885
F-12.0879462
aF-77.0507914
aa(lp886
F-12.0790725
aF-77.0633684
aa(lp887
F-12.0788478
aF-77.0644141
aa(lp888
F-12.0928937
aF-77.0533038
aa(lp889
F-12.067678
aF-77.069506
aa(lp890
F-12.0647703
aF-77.0542494
aa(lp891
F-12.0930397
aF-77.0533806
aa(lp892
F-12.0869814
aF-77.0586007
aa(lp893
F-12.0672796
aF-77.0592474
aa(lp894
F-12.0946456
aF-77.0553304
aa(lp895
F-12.0938149
aF-77.0549007
aa(lp896
F-12.0925057
aF-77.0542226
aa(lp897
F-12.0860601
aF-77.0564628
aa(lp898
F-12.0879751
aF-77.0573504
aa(lp899
F-12.0873801
aF-77.0581053
aa(lp900
F-12.0873002
aF-77.0582026
aa(lp901
F-12.0871366
aF-77.0584164
aa(lp902
F-12.0858893
aF-77.0627699
aa(lp903
F-12.0866541
aF-77.0590143
aa(lp904
F-12.0846171
aF-77.0615349
aa(lp905
F-12.0646823
aF-77.0602869
aa(lp906
F-12.073864
aF-77.0585058
aa(lp907
F-12.0709105
aF-77.0528706
aa(lp908
F-12.06386
aF-77.0483062
aa(lp909
F-12.0635445
aF-77.0548446
aa(lp910
F-12.0913546
aF-77.0388783
aa(lp911
F-12.0691467
aF-77.0542374
aa(lp912
F-12.0874992
aF-77.0587166
aa(lp913
F-12.0878504
aF-77.0590072
aa(lp914
F-12.0882987
aF-77.0593784
aa(lp915
F-12.0798359
aF-77.0576135
aa(lp916
F-12.0822367
aF-77.0631885
aa(lp917
F-12.0645224
aF-77.0393742
aa(lp918
F-12.0673824
aF-77.0599251
aa(lp919
F-12.0767644
aF-77.0579511
aa(lp920
F-12.0643664
aF-77.0557672
aa(lp921
F-12.06807
aF-77.053533
aa(lp922
F-12.0793413
aF-77.0651597
aa(lp923
F-12.0926316
aF-77.0636039
aa(lp924
F-12.0924932
aF-77.0603642
aa(lp925
F-12.080494
aF-77.0584181
aa(lp926
F-12.088795
aF-77.06408
aa(lp927
F-12.0884487
aF-77.0582747
aa(lp928
F-12.0676224
aF-77.0669919
aa(lp929
F-12.079978
aF-77.064912
aa(lp930
F-12.0629713
aF-77.040179
aa(lp931
F-12.0747872
aF-77.0591038
aa(lp932
F-12.0636092
aF-77.0598016
aa(lp933
F-12.0622167
aF-77.043032
aa(lp934
F-12.0827338
aF-77.0577209
aa(lp935
F-12.0628764
aF-77.0585748
aa(lp936
F-12.0786611
aF-77.0569041
aa(lp937
F-12.0723855
aF-77.0573764
aa(lp938
F-12.0772216
aF-77.0645759
aa(lp939
F-12.0840397
aF-77.0530087
aa(lp940
F-12.0805051
aF-77.0650304
aa(lp941
F-12.0881042
aF-77.0586965
aa(lp942
F-12.0883333
aF-77.058416
aa(lp943
F-12.0886087
aF-77.0580789
aa(lp944
F-12.0827627
aF-77.0636485
aa(lp945
F-12.068249
aF-77.0480638
aa(lp946
F-12.0722612
aF-77.0404039
aa(lp947
F-12.0723841
aF-77.0396163
aa(lp948
F-12.0724635
aF-77.0390257
aa(lp949
F-12.0725001
aF-77.0388047
aa(lp950
F-12.0726267
aF-77.0380488
aa(lp951
F-12.0813878
aF-77.0632627
aa(lp952
F-12.0750191
aF-77.047609
aa(lp953
F-12.0755618
aF-77.0511482
aa(lp954
F-12.0639682
aF-77.0579961
aa(lp955
F-12.0644869
aF-77.044086
aa(lp956
F-12.0711701
aF-77.0616381
aa(lp957
F-12.0876141
aF-77.0578066
aa(lp958
F-12.0867231
aF-77.054729
aa(lp959
F-12.0672326
aF-77.0599422
aa(lp960
F-12.0843072
aF-77.063658
aa(lp961
F-12.0836422
aF-77.0506506
aa(lp962
F-12.0645079
aF-77.055263
aa(lp963
F-12.0924011
aF-77.0464148
aa(lp964
F-12.0844048
aF-77.0635365
aa(lp965
F-12.0895936
aF-77.0374216
aa(lp966
F-12.0687139
aF-77.0503557
aa(lp967
F-12.0694737
aF-77.0444654
aa(lp968
F-12.0658375
aF-77.0490169
aa(lp969
F-12.0900292
aF-77.0576073
aa(lp970
F-12.0806021
aF-77.058404
aa(lp971
F-12.0786284
aF-77.0567068
aa(lp972
F-12.0792564
aF-77.0655909
aa(lp973
F-12.0862639
aF-77.0552998
aa(lp974
F-12.0858444
aF-77.0558211
aa(lp975
F-12.0852732
aF-77.056531
aa(lp976
F-12.0851058
aF-77.0567391
aa(lp977
F-12.084949
aF-77.0569339
aa(lp978
F-12.0844771
aF-77.0575204
aa(lp979
F-12.0840068
aF-77.0581049
aa(lp980
F-12.0836882
aF-77.0585009
aa(lp981
F-12.0833885
aF-77.0588733
aa(lp982
F-12.0825898
aF-77.059866
aa(lp983
F-12.0868201
aF-77.0578067
aa(lp984
F-12.0857093
aF-77.0568906
aa(lp985
F-12.0676397
aF-77.067618
aa(lp986
F-12.0768721
aF-77.0391007
aa(lp987
F-12.0818289
aF-77.0627153
aa(lp988
F-12.0721694
aF-77.0512982
aa(lp989
F-12.0755496
aF-77.0598165
aa(lp990
F-12.0682987
aF-77.058406
aa(lp991
F-12.0950402
aF-77.0673891
aa(lp992
F-12.0800278
aF-77.064689
aa(lp993
F-12.0755661
aF-77.0636481
aa(lp994
F-12.0755602
aF-77.0635552
aa(lp995
F-12.0754366
aF-77.068644
aa(lp996
F-12.0754896
aF-77.0622637
aa(lp997
F-12.0754311
aF-77.059353
aa(lp998
F-12.0814523
aF-77.0624017
aa(lp999
F-12.0706353
aF-77.0533823
aa(lp1000
F-12.0942713
aF-77.0667401
aa(lp1001
F-12.0872687
aF-77.0571338
aa(lp1002
F-12.0796367
aF-77.0634938
aa(lp1003
F-12.0867138
aF-77.0566139
aa(lp1004
F-12.0863659
aF-77.0563308
aa(lp1005
F-12.084526
aF-77.0549437
aa(lp1006
F-12.0834058
aF-77.0542001
aa(lp1007
F-12.0832967
aF-77.0541276
aa(lp1008
F-12.0847879
aF-77.0355883
aa(lp1009
F-12.0827106
aF-77.0538452
aa(lp1010
F-12.0821048
aF-77.0538137
aa(lp1011
F-12.0816932
aF-77.0539372
aa(lp1012
F-12.0810772
aF-77.0544393
aa(lp1013
F-12.0804678
aF-77.055188
aa(lp1014
F-12.0875789
aF-77.0641508
aa(lp1015
F-12.0840292
aF-77.0385458
aa(lp1016
F-12.0676635
aF-77.0637888
aa(lp1017
F-12.0709481
aF-77.0640957
aa(lp1018
F-12.0711056
aF-77.0624619
aa(lp1019
F-12.0942998
aF-77.0472891
aa(lp1020
F-12.0941392
aF-77.0473176
aa(lp1021
F-12.0736224
aF-77.0690474
aa(lp1022
F-12.0722717
aF-77.068887
aa(lp1023
F-12.0721701
aF-77.0688747
aa(lp1024
F-12.0637287
aF-77.0635001
aa(lp1025
F-12.0780419
aF-77.0604138
aa(lp1026
F-12.0628597
aF-77.040083
aa(lp1027
F-12.0880505
aF-77.0506795
aa(lp1028
F-12.0641508
aF-77.0619186
aa(lp1029
F-12.0738257
aF-77.0417981
aa(lp1030
F-12.0721009
aF-77.0701597
aa(lp1031
F-12.0763114
aF-77.0640728
aa(lp1032
F-12.0890647
aF-77.0624195
aa(lp1033
F-12.0927104
aF-77.0654629
aa(lp1034
F-12.093174
aF-77.0531918
aa(lp1035
F-12.0930146
aF-77.053106
aa(lp1036
F-12.091613
aF-77.0523678
aa(lp1037
F-12.0894358
aF-77.0512697
aa(lp1038
F-12.0834452
aF-77.0531397
aa(lp1039
F-12.0880082
aF-77.0505592
aa(lp1040
F-12.0708436
aF-77.0405083
aa(lp1041
F-12.086292
aF-77.0496298
aa(lp1042
F-12.0851026
aF-77.0543222
aa(lp1043
F-12.0851627
aF-77.0486346
aa(lp1044
F-12.0842186
aF-77.0475662
aa(lp1045
F-12.0833125
aF-77.0465142
aa(lp1046
F-12.0830242
aF-77.0462175
aa(lp1047
F-12.0827022
aF-77.0458227
aa(lp1048
F-12.0825811
aF-77.0456006
aa(lp1049
F-12.0810427
aF-77.057718
aa(lp1050
F-12.0605673
aF-77.0419915
aa(lp1051
F-12.0798895
aF-77.0652744
aa(lp1052
F-12.083848
aF-77.0557085
aa(lp1053
F-12.0834452
aF-77.0564
aa(lp1054
F-12.0796892
aF-77.0421816
aa(lp1055
F-12.0795654
aF-77.0421652
aa(lp1056
F-12.0830569
aF-77.057319
aa(lp1057
F-12.0824363
aF-77.0580951
aa(lp1058
F-12.076562
aF-77.0420821
aa(lp1059
F-12.0670632
aF-77.0586586
aa(lp1060
F-12.0764944
aF-77.0420852
aa(lp1061
F-12.0671932
aF-77.0586353
aa(lp1062
F-12.075194
aF-77.0419957
aa(lp1063
F-12.07505
aF-77.0419773
aa(lp1064
F-12.078609
aF-77.0565965
aa(lp1065
F-12.0772095
aF-77.0470396
aa(lp1066
F-12.0721397
aF-77.0410999
aa(lp1067
F-12.0771927
aF-77.046924
aa(lp1068
F-12.0770645
aF-77.0460461
aa(lp1069
F-12.0769413
aF-77.0452022
aa(lp1070
F-12.0768315
aF-77.0444502
aa(lp1071
F-12.0766876
aF-77.0434647
aa(lp1072
F-12.0764111
aF-77.0415195
aa(lp1073
F-12.070614
aF-77.0404035
aa(lp1074
F-12.0762709
aF-77.0405671
aa(lp1075
F-12.0761645
aF-77.0398444
aa(lp1076
F-12.0632472
aF-77.0587066
aa(lp1077
F-12.0837259
aF-77.0624415
aa(lp1078
F-12.0765052
aF-77.0422003
aa(lp1079
F-12.0751978
aF-77.0421072
aa(lp1080
F-12.0796146
aF-77.0532098
aa(lp1081
F-12.0647474
aF-77.0419593
aa(lp1082
F-12.0637503
aF-77.0633466
aa(lp1083
F-12.0652554
aF-77.0455743
aa(lp1084
F-12.0710105
aF-77.0407588
aa(lp1085
F-12.0752073
aF-77.0495434
aa(lp1086
F-12.0852308
aF-77.0474391
aa(lp1087
F-12.0750575
aF-77.0420911
aa(lp1088
F-12.0686972
aF-77.0561503
aa(lp1089
F-12.0652131
aF-77.0390169
aa(lp1090
F-12.0738221
aF-77.0419025
aa(lp1091
F-12.0720972
aF-77.0513883
aa(lp1092
F-12.0721163
aF-77.0411942
aa(lp1093
F-12.0690414
aF-77.0545145
aa(lp1094
F-12.0606821
aF-77.041868
aa(lp1095
F-12.0705631
aF-77.0773789
aa(lp1096
F-12.0732671
aF-77.0541022
aa(lp1097
F-12.0676938
aF-77.0648843
aa(lp1098
F-12.0899893
aF-77.0659488
aa(lp1099
F-12.0904411
aF-77.0654064
aa(lp1100
F-12.0908607
aF-77.0648742
aa(lp1101
F-12.0913391
aF-77.064282
aa(lp1102
F-12.0914979
aF-77.0640752
aa(lp1103
F-12.0918254
aF-77.0636753
aa(lp1104
F-12.0711895
aF-77.0504852
aa(lp1105
F-12.071989
aF-77.0494879
aa(lp1106
F-12.0738053
aF-77.0444406
aa(lp1107
F-12.0768003
aF-77.0397603
aa(lp1108
F-12.0738248
aF-77.0406518
aa(lp1109
F-12.0738454
aF-77.0396212
aa(lp1110
F-12.0750756
aF-77.0441978
aa(lp1111
F-12.0750592
aF-77.0450628
aa(lp1112
F-12.0756621
aF-77.061322
aa(lp1113
F-12.0651526
aF-77.0442168
aa(lp1114
F-12.0707633
aF-77.0530661
aa(lp1115
F-12.0742316
aF-77.0548864
aa(lp1116
F-12.0700501
aF-77.0391996
aa(lp1117
F-12.0699703
aF-77.0391462
aa(lp1118
F-12.070041
aF-77.0393257
aa(lp1119
F-12.0734064
aF-77.0590968
aa(lp1120
F-12.0727272
aF-77.0434574
aa(lp1121
F-12.0837462
aF-77.0443122
aa(lp1122
F-12.0805323
aF-77.0649041
aa(lp1123
F-12.0716585
aF-77.0388867
aa(lp1124
F-12.0705536
aF-77.0386932
aa(lp1125
F-12.0916772
aF-77.048816
aa(lp1126
F-12.0787754
aF-77.0511882
aa(lp1127
F-12.0960699
aF-77.0571873
aa(lp1128
F-12.0682603
aF-77.0439883
aa(lp1129
F-12.0834884
aF-77.0606377
aa(lp1130
F-12.0843144
aF-77.05963
aa(lp1131
F-12.084927
aF-77.0588661
aa(lp1132
F-12.0820998
aF-77.0565273
aa(lp1133
F-12.0820333
aF-77.05647
aa(lp1134
F-12.0812503
aF-77.0558239
aa(lp1135
F-12.0931267
aF-77.0606857
aa(lp1136
F-12.079977
aF-77.0547789
aa(lp1137
F-12.0794926
aF-77.0543821
aa(lp1138
F-12.0790041
aF-77.053979
aa(lp1139
F-12.0785088
aF-77.0535695
aa(lp1140
F-12.0921913
aF-77.0628922
aa(lp1141
F-12.0775253
aF-77.0527591
aa(lp1142
F-12.0913502
aF-77.0639564
aa(lp1143
F-12.0911789
aF-77.0641611
aa(lp1144
F-12.074579
aF-77.050319
aa(lp1145
F-12.0902815
aF-77.0652901
aa(lp1146
F-12.0735939
aF-77.0495089
aa(lp1147
F-12.0726138
aF-77.048702
aa(lp1148
F-12.0716396
aF-77.0479038
aa(lp1149
F-12.0706636
aF-77.0470869
aa(lp1150
F-12.0696721
aF-77.0462691
aa(lp1151
F-12.0686939
aF-77.045462
aa(lp1152
F-12.0892001
aF-77.0382788
aa(lp1153
F-12.0675861
aF-77.0448006
aa(lp1154
F-12.0662418
aF-77.0444414
aa(lp1155
F-12.0723665
aF-77.0397343
aa(lp1156
F-12.0887443
aF-77.0350056
aa(lp1157
F-12.0789115
aF-77.0455788
aa(lp1158
F-12.078052
aF-77.0454069
aa(lp1159
F-12.088061
aF-77.0426408
aa(lp1160
F-12.0856267
aF-77.0639946
aa(lp1161
F-12.0626373
aF-77.0472622
aa(lp1162
F-12.0841311
aF-77.0569696
aa(lp1163
F-12.0740561
aF-77.0530974
aa(lp1164
F-12.0741118
aF-77.0529796
aa(lp1165
F-12.0892087
aF-77.0393587
aa(lp1166
F-12.087747
aF-77.0613981
aa(lp1167
F-12.0782631
aF-77.0630947
aa(lp1168
F-12.0884604
aF-77.0603252
aa(lp1169
F-12.0891669
aF-77.0592649
aa(lp1170
F-12.0896407
aF-77.0585425
aa(lp1171
F-12.0900987
aF-77.0578407
aa(lp1172
F-12.0901677
aF-77.057741
aa(lp1173
F-12.091423
aF-77.0558448
aa(lp1174
F-12.0919518
aF-77.0550294
aa(lp1175
F-12.0745436
aF-77.0714964
aa(lp1176
F-12.0644251
aF-77.0534148
aa(lp1177
F-12.0738506
aF-77.0740178
aa(lp1178
F-12.0644572
aF-77.039179
aa(lp1179
F-12.0706246
aF-77.0436472
aa(lp1180
F-12.0707322
aF-77.0431365
aa(lp1181
F-12.0730311
aF-77.0405403
aa(lp1182
F-12.0765606
aF-77.05194
aa(lp1183
F-12.071748
aF-77.039493
aa(lp1184
F-12.0691721
aF-77.054862
aa(lp1185
F-12.0708939
aF-77.0435166
aa(lp1186
F-12.0709139
aF-77.0434065
aa(lp1187
F-12.0754936
aF-77.0677014
aa(lp1188
F-12.0856798
aF-77.0640661
aa(lp1189
F-12.0738027
aF-77.0675551
aa(lp1190
F-12.0752112
aF-77.0450666
aa(lp1191
F-12.0737975
aF-77.0450549
aa(lp1192
F-12.0730191
aF-77.0450507
aa(lp1193
F-12.0899603
aF-77.0577279
aa(lp1194
F-12.0893284
aF-77.0586485
aa(lp1195
F-12.0886629
aF-77.0596798
aa(lp1196
F-12.0643119
aF-77.055924
aa(lp1197
F-12.0724385
aF-77.0673872
aa(lp1198
F-12.0874029
aF-77.0616642
aa(lp1199
F-12.0672299
aF-77.047306
aa(lp1200
F-12.0726352
aF-77.0571014
aa(lp1201
F-12.0788504
aF-77.0654082
aa(lp1202
F-12.0844665
aF-77.0615947
aa(lp1203
F-12.064096
aF-77.0590005
aa(lp1204
F-12.0787078
aF-77.0653372
aa(lp1205
F-12.08531
aF-77.0485856
aa(lp1206
F-12.0863231
aF-77.0631258
aa(lp1207
F-12.0898049
aF-77.0659083
aa(lp1208
F-12.0718689
aF-77.0590405
aa(lp1209
F-12.0721373
aF-77.0513383
aa(lp1210
F-12.0740873
aF-77.0530277
aa(lp1211
F-12.0668322
aF-77.0609183
aa(lp1212
F-12.0920552
aF-77.0588737
aa(lp1213
F-12.0910507
aF-77.0583451
aa(lp1214
F-12.0844452
aF-77.0453114
aa(lp1215
F-12.0875469
aF-77.0640321
aa(lp1216
F-12.0670692
aF-77.0434256
aa(lp1217
F-12.0900654
aF-77.0611796
aa(lp1218
F-12.0717512
aF-77.0396287
aa(lp1219
F-12.0895457
aF-77.0618101
aa(lp1220
F-12.0885779
aF-77.0630117
aa(lp1221
F-12.0881583
aF-77.0635267
aa(lp1222
F-12.087701
aF-77.0640747
aa(lp1223
F-12.0845598
aF-77.0424353
aa(lp1224
F-12.0682117
aF-77.0481078
aa(lp1225
F-12.0647902
aF-77.0388549
aa(lp1226
F-12.083031
aF-77.0553035
aa(lp1227
F-12.0846055
aF-77.0573609
aa(lp1228
F-12.090995
aF-77.0584283
aa(lp1229
F-12.0835419
aF-77.0577202
aa(lp1230
F-12.0639553
aF-77.0439461
aa(lp1231
F-12.0920338
aF-77.0589852
aa(lp1232
F-12.064497
aF-77.0432481
aa(lp1233
F-12.075244
aF-77.0692495
aa(lp1234
F-12.0933624
aF-77.0557695
aa(lp1235
F-12.0711524
aF-77.0505374
aa(lp1236
F-12.0781883
aF-77.065034
aa(lp1237
F-12.0692026
aF-77.0489218
aa(lp1238
F-12.0774633
aF-77.0487777
aa(lp1239
F-12.0680437
aF-77.0442262
aa(lp1240
F-12.0964166
aF-77.0628057
aa(lp1241
F-12.0659823
aF-77.0426159
aa(lp1242
F-12.0648367
aF-77.0419449
aa(lp1243
F-12.0943269
aF-77.0623336
aa(lp1244
F-12.0671996
aF-77.0473482
aa(lp1245
F-12.0720563
aF-77.0514394
aa(lp1246
F-12.0929218
aF-77.056669
aa(lp1247
F-12.0805428
aF-77.0583556
aa(lp1248
F-12.0636737
aF-77.0588493
aa(lp1249
F-12.0925377
aF-77.0573956
aa(lp1250
F-12.0918418
aF-77.0571349
aa(lp1251
F-12.0923573
aF-77.0344844
aa(lp1252
F-12.0924641
aF-77.0353153
aa(lp1253
F-12.0925785
aF-77.0361201
aa(lp1254
F-12.0926918
aF-77.0369544
aa(lp1255
F-12.0928074
aF-77.0377495
aa(lp1256
F-12.093268
aF-77.059771
aa(lp1257
F-12.0930555
aF-77.039518
aa(lp1258
F-12.0932747
aF-77.0411326
aa(lp1259
F-12.0719743
aF-77.0536861
aa(lp1260
F-12.0935101
aF-77.0428051
aa(lp1261
F-12.0938281
aF-77.0450479
aa(lp1262
F-12.0939965
aF-77.0461795
aa(lp1263
F-12.0942983
aF-77.048438
aa(lp1264
F-12.0944665
aF-77.0495783
aa(lp1265
F-12.0946092
aF-77.0505997
aa(lp1266
F-12.0946384
aF-77.0509558
aa(lp1267
F-12.0675124
aF-77.0575868
aa(lp1268
F-12.0636039
aF-77.0433443
aa(lp1269
F-12.0677211
aF-77.0715697
aa(lp1270
F-12.0691702
aF-77.0489619
aa(lp1271
F-12.0700851
aF-77.0546243
aa(lp1272
F-12.0785859
aF-77.0473705
aa(lp1273
F-12.0741455
aF-77.0529207
aa(lp1274
F-12.0942338
aF-77.0540206
aa(lp1275
F-12.0755778
aF-77.0638743
aa(lp1276
F-12.0805899
aF-77.0417954
aa(lp1277
F-12.0797366
aF-77.0417246
aa(lp1278
F-12.0805765
aF-77.0583158
aa(lp1279
F-12.0653351
aF-77.0456225
aa(lp1280
F-12.0730465
aF-77.0572996
aa(lp1281
F-12.0752347
aF-77.044204
aa(lp1282
F-12.0716063
aF-77.0604325
aa(lp1283
F-12.0805071
aF-77.0411703
aa(lp1284
F-12.0797987
aF-77.0412596
aa(lp1285
F-12.0766135
aF-77.0414976
aa(lp1286
F-12.0732035
aF-77.0618227
aa(lp1287
F-12.0732769
aF-77.0614546
aa(lp1288
F-12.0626389
aF-77.048932
aa(lp1289
F-12.0767166
aF-77.0405044
aa(lp1290
F-12.0888955
aF-77.0613036
aa(lp1291
F-12.0668966
aF-77.0574241
aa(lp1292
F-12.0730776
aF-77.0607496
aa(lp1293
F-12.0908132
aF-77.0567577
aa(lp1294
F-12.0886237
aF-77.035027
aa(lp1295
F-12.0887455
aF-77.0358849
aa(lp1296
F-12.0888548
aF-77.0366965
aa(lp1297
F-12.0889739
aF-77.0375067
aa(lp1298
F-12.0890854
aF-77.0382956
aa(lp1299
F-12.0657044
aF-77.0532083
aa(lp1300
F-12.0876544
aF-77.0436561
aa(lp1301
F-12.0917374
aF-77.0610227
aa(lp1302
F-12.0876424
aF-77.044511
aa(lp1303
F-12.0883668
aF-77.0493132
aa(lp1304
F-12.0884154
aF-77.0496899
aa(lp1305
F-12.0901594
aF-77.0609981
aa(lp1306
F-12.0894927
aF-77.0607372
aa(lp1307
F-12.0889891
aF-77.0605569
aa(lp1308
F-12.0606429
aF-77.0419192
aa(lp1309
F-12.0766156
aF-77.0641566
aa(lp1310
F-12.0738948
aF-77.0619615
aa(lp1311
F-12.0676355
aF-77.0674788
aa(lp1312
F-12.0739645
aF-77.061596
aa(lp1313
F-12.0810635
aF-77.0496357
aa(lp1314
F-12.0740382
aF-77.058874
aa(lp1315
F-12.0722571
aF-77.0532642
aa(lp1316
F-12.0662853
aF-77.0464208
aa(lp1317
F-12.067685
aF-77.0546434
aa(lp1318
F-12.0776136
aF-77.0465616
aa(lp1319
F-12.0809956
aF-77.0637495
aa(lp1320
F-12.0806364
aF-77.0634536
aa(lp1321
F-12.0750417
aF-77.0460311
aa(lp1322
F-12.0792685
aF-77.0625655
aa(lp1323
F-12.0727106
aF-77.0459944
aa(lp1324
F-12.0718897
aF-77.0455329
aa(lp1325
F-12.0709129
aF-77.0447329
aa(lp1326
F-12.0700268
aF-77.0439876
aa(lp1327
F-12.0666888
aF-77.0561353
aa(lp1328
F-12.0747572
aF-77.0592615
aa(lp1329
F-12.0732574
aF-77.0760707
aa(lp1330
F-12.0732158
aF-77.0712679
aa(lp1331
F-12.0719448
aF-77.0710915
aa(lp1332
F-12.0671758
aF-77.0585094
aa(lp1333
F-12.0881356
aF-77.0626602
aa(lp1334
F-12.0879287
aF-77.0625026
aa(lp1335
F-12.074668
aF-77.0597106
aa(lp1336
F-12.0803973
aF-77.0655609
aa(lp1337
F-12.0845531
aF-77.0461053
aa(lp1338
F-12.0721637
aF-77.0641999
aa(lp1339
F-12.0637728
aF-77.0599617
aa(lp1340
F-12.0690272
aF-77.054836
aa(lp1341
F-12.0675242
aF-77.0581075
aa(lp1342
F-12.0769754
aF-77.0380447
aa(lp1343
F-12.0759233
aF-77.0382062
aa(lp1344
F-12.0748946
aF-77.0383748
aa(lp1345
F-12.0648723
aF-77.0393052
aa(lp1346
F-12.0779971
aF-77.0563742
aa(lp1347
F-12.0647967
aF-77.0390326
aa(lp1348
F-12.0877948
aF-77.0493884
aa(lp1349
F-12.0877302
aF-77.0631834
aa(lp1350
F-12.087512
aF-77.0630203
aa(lp1351
F-12.0671359
aF-77.0592592
aa(lp1352
F-12.0720371
aF-77.0641147
aa(lp1353
F-12.0967035
aF-77.0584236
aa(lp1354
F-12.0651105
aF-77.060344
aa(lp1355
F-12.0887789
aF-77.0649595
aa(lp1356
F-12.0939853
aF-77.0571705
aa(lp1357
F-12.0935627
aF-77.0592532
aa(lp1358
F-12.0650421
aF-77.0389066
aa(lp1359
F-12.0931067
aF-77.0532865
aa(lp1360
F-12.0724029
aF-77.0363653
aa(lp1361
F-12.0892019
aF-77.0644119
aa(lp1362
F-12.0868537
aF-77.0595394
aa(lp1363
F-12.0896208
aF-77.0638936
aa(lp1364
F-12.0900985
aF-77.0632827
aa(lp1365
F-12.0902787
aF-77.0630576
aa(lp1366
F-12.0906004
aF-77.0626684
aa(lp1367
F-12.0911125
aF-77.0620246
aa(lp1368
F-12.0882715
aF-77.0340197
aa(lp1369
F-12.088819
aF-77.0339353
aa(lp1370
F-12.0890988
aF-77.0338992
aa(lp1371
F-12.0786453
aF-77.0567887
aa(lp1372
F-12.0906107
aF-77.0336567
aa(lp1373
F-12.0718458
aF-77.0710701
aa(lp1374
F-12.0705516
aF-77.0551125
aa(lp1375
F-12.0828371
aF-77.0377035
aa(lp1376
F-12.0753993
aF-77.0592098
aa(lp1377
F-12.0651497
aF-77.0389012
aa(lp1378
F-12.073052
aF-77.0522668
aa(lp1379
F-12.072386
aF-77.0362139
aa(lp1380
F-12.0777893
aF-77.0629362
aa(lp1381
F-12.0683882
aF-77.0547664
aa(lp1382
F-12.0696138
aF-77.0366324
aa(lp1383
F-12.0737448
aF-77.0609022
aa(lp1384
F-12.0884268
aF-77.0618959
aa(lp1385
F-12.0885947
aF-77.0620332
aa(lp1386
F-12.0882112
aF-77.047602
aa(lp1387
F-12.0678028
aF-77.0546633
aa(lp1388
F-12.0800642
aF-77.0385979
aa(lp1389
F-12.0630082
aF-77.0420279
aa(lp1390
F-12.0796528
aF-77.0417185
aa(lp1391
F-12.0818554
aF-77.0636457
aa(lp1392
F-12.0892836
aF-77.0572527
aa(lp1393
F-12.0717687
aF-77.0554366
aa(lp1394
F-12.0725766
aF-77.0618255
aa(lp1395
F-12.0721985
aF-77.0483584
aa(lp1396
F-12.0735053
aF-77.060328
aa(lp1397
F-12.0806382
aF-77.0583659
aa(lp1398
F-12.0710817
aF-77.0526555
aa(lp1399
F-12.06474
aF-77.0394285
aa(lp1400
F-12.0905334
aF-77.0591493
aa(lp1401
F-12.090055
aF-77.0598703
aa(lp1402
F-12.0897712
aF-77.0602778
aa(lp1403
F-12.1012231
aF-77.0574763
aa(lp1404
F-12.0929549
aF-77.0532094
aa(lp1405
F-12.0966138
aF-77.0583806
aa(lp1406
F-12.0743032
aF-77.0575034
aa(lp1407
F-12.0757363
aF-77.06374
aa(lp1408
F-12.0667238
aF-77.0591088
aa(lp1409
F-12.0699014
aF-77.0385743
aa(lp1410
F-12.08446
aF-77.0416272
aa(lp1411
F-12.0685131
aF-77.0383232
aa(lp1412
F-12.1012988
aF-77.0575115
aa(lp1413
F-12.0693897
aF-77.0527591
aa(lp1414
F-12.0802364
aF-77.063137
aa(lp1415
F-12.0706663
aF-77.0544135
aa(lp1416
F-12.0707145
aF-77.0540873
aa(lp1417
F-12.0706762
aF-77.0537655
aa(lp1418
F-12.0781614
aF-77.0619969
aa(lp1419
F-12.0742458
aF-77.0629063
aa(lp1420
F-12.0744065
aF-77.0610455
aa(lp1421
F-12.0616206
aF-77.0408913
aa(lp1422
F-12.0862665
aF-77.0632
aa(lp1423
F-12.0803252
aF-77.0423197
aa(lp1424
F-12.0952712
aF-77.054421
aa(lp1425
F-12.0718727
aF-77.0542995
aa(lp1426
F-12.0950813
aF-77.0543218
aa.