(lp0
(I263109791
I263357989
tp1
a(I4465408205
I263110782
tp2
a(I263110782
I4465408200
tp3
a(I263111351
I263111352
tp4
a(I263111352
I263111353
tp5
a(I263384344
I4590038091
tp6
a(I263384346
I263384347
tp7
a(I263384347
I263384348
tp8
a(I263384348
I263384349
tp9
a(I263384349
I263384350
tp10
a(I263384350
I263384352
tp11
a(I263383619
I263383329
tp12
a(I263383329
I182472515
tp13
a(I263111599
I263111598
tp14
a(I263111598
I263111597
tp15
a(I263111597
I263111211
tp16
a(I263111211
I263111596
tp17
a(I263111596
I263111595
tp18
a(I263111595
I4607191982
tp19
a(I263111593
I263111592
tp20
a(I263111592
I263111591
tp21
a(I263111591
I263111590
tp22
a(I263111590
I263111589
tp23
a(I263111589
I263111353
tp24
a(I263111353
I263111588
tp25
a(I263111588
I263111587
tp26
a(I263111587
I263111586
tp27
a(I263111586
I263111585
tp28
a(I263111585
I263111584
tp29
a(I263111584
I4039124557
tp30
a(I263108229
I263111696
tp31
a(I263111855
I263112272
tp32
a(I263112272
I263111854
tp33
a(I263111854
I263111699
tp34
a(I263111699
I2791690112
tp35
a(I263112013
I263111212
tp36
a(I263111212
I263112014
tp37
a(I263112014
I263112015
tp38
a(I263112015
I263111697
tp39
a(I263108228
I263111598
tp40
a(I263111598
I263112015
tp41
a(I263111854
I263112271
tp42
a(I263112271
I263112329
tp43
a(I263112329
I263111214
tp44
a(I263111214
I1273840285
tp45
a(I1273840285
I263112177
tp46
a(I263112014
I263112329
tp47
a(I263112329
I263112384
tp48
a(I263112384
I263114459
tp49
a(I263114459
I263114543
tp50
a(I263114543
I263109782
tp51
a(I263112174
I263112609
tp52
a(I263112609
I263112610
tp53
a(I263112610
I4326991594
tp54
a(I263108223
I263111593
tp55
a(I263112178
I263112859
tp56
a(I263112859
I263112958
tp57
a(I263112176
I263112858
tp58
a(I263112858
I263112748
tp59
a(I263112748
I472209412
tp60
a(I263113044
I263113198
tp61
a(I263113198
I263111591
tp62
a(I2974698167
I263113201
tp63
a(I263113201
I263111589
tp64
a(I263110069
I1425922073
tp65
a(I1425922073
I4337702008
tp66
a(I3992308111
I263359016
tp67
a(I263359016
I263359018
tp68
a(I263359018
I263358427
tp69
a(I263358427
I263357998
tp70
a(I263357998
I263357757
tp71
a(I263357757
I263122135
tp72
a(I263122135
I263122095
tp73
a(I263122095
I263121285
tp74
a(I263121285
I263121082
tp75
a(I263121082
I263358963
tp76
a(I263358963
I4560591751
tp77
a(I263114445
I263114110
tp78
a(I263114110
I263113202
tp79
a(I263113202
I263111588
tp80
a(I263111588
I263108218
tp81
a(I263397625
I4468934316
tp82
a(I263121419
I4580587870
tp83
a(I2073408910
I2854447005
tp84
a(I2854447005
I4560591807
tp85
a(I263359071
I263359070
tp86
a(I263359070
I4560591700
tp87
a(I263121286
I263122094
tp88
a(I263122094
I263122137
tp89
a(I263122137
I263357758
tp90
a(I263357758
I263357997
tp91
a(I263357997
I263358428
tp92
a(I263358428
I263359298
tp93
a(I263359298
I263359299
tp94
a(I263122093
I263121287
tp95
a(I263121287
I263121084
tp96
a(I263121084
I263359070
tp97
a(I1639104063
I263122091
tp98
a(I263122091
I263121289
tp99
a(I263121289
I263121086
tp100
a(I263122089
I263121291
tp101
a(I263121291
I263121088
tp102
a(I263121088
I263114455
tp103
a(I263122088
I263121292
tp104
a(I263121293
I263121418
tp105
a(I263359439
I4578573747
tp106
a(I263109793
I263357989
tp107
a(I263357764
I263122144
tp108
a(I263122143
I263357763
tp109
a(I263357763
I263357992
tp110
a(I263122146
I263360041
tp111
a(I263360041
I263357766
tp112
a(I263360041
I263360133
tp113
a(I263122142
I263357762
tp114
a(I1273895001
I263122139
tp115
a(I263122139
I263357760
tp116
a(I263357760
I263357995
tp117
a(I263357995
I2064693929
tp118
a(I263358430
I2064693883
tp119
a(I263360180
I263360179
tp120
a(I263360179
I263358429
tp121
a(I263360158
I263360179
tp122
a(I263360179
I263359298
tp123
a(I263359298
I263359018
tp124
a(I263359018
I263358643
tp125
a(I263387630
I4578541095
tp126
a(I263387632
I4578541133
tp127
a(I263387633
I263387634
tp128
a(I263387638
I4580618460
tp129
a(I263384694
I263384693
tp130
a(I263384693
I263384692
tp131
a(I263384692
I4542247392
tp132
a(I263376697
I263376843
tp133
a(I263376843
I263382107
tp134
a(I263382107
I263382108
tp135
a(I263382108
I263382110
tp136
a(I263382110
I263382111
tp137
a(I263382111
I182472514
tp138
a(I182472514
I263384425
tp139
a(I263384425
I263384684
tp140
a(I263384684
I4542246736
tp141
a(I263384508
I263384653
tp142
a(I263384653
I263382770
tp143
a(I263382770
I262729965
tp144
a(I262729965
I263382769
tp145
a(I263382769
I263382768
tp146
a(I263382768
I263382766
tp147
a(I263382766
I263382357
tp148
a(I263384693
I263384616
tp149
a(I263384616
I263384644
tp150
a(I263384644
I263385020
tp151
a(I263385020
I263385021
tp152
a(I263385021
I263385022
tp153
a(I263385022
I263384802
tp154
a(I263386945
I263384930
tp155
a(I263384930
I263384932
tp156
a(I263384932
I263384933
tp157
a(I263384933
I263384934
tp158
a(I263384934
I263384935
tp159
a(I263384935
I263384936
tp160
a(I263384936
I263384791
tp161
a(I263384791
I263384793
tp162
a(I263384793
I263384795
tp163
a(I263384793
I263385021
tp164
a(I263385021
I263384501
tp165
a(I263385022
I263385047
tp166
a(I263385182
I263385183
tp167
a(I263385183
I263381110
tp168
a(I263381110
I263385184
tp169
a(I263385184
I4590040403
tp170
a(I263384435
I4342992428
tp171
a(I263384064
I263385865
tp172
a(I263387030
I263387031
tp173
a(I263387031
I263386247
tp174
a(I263384801
I263386681
tp175
a(I263386681
I263386683
tp176
a(I263386683
I263385185
tp177
a(I263385185
I263386247
tp178
a(I263386247
I263386684
tp179
a(I263386684
I263386685
tp180
a(I263386685
I263386686
tp181
a(I263384433
I1273621384
tp182
a(I1273621384
I263384936
tp183
a(I263384936
I263386681
tp184
a(I263386811
I263386813
tp185
a(I263386813
I263386683
tp186
a(I263386683
I263384935
tp187
a(I263384935
I263384434
tp188
a(I263384437
I263384932
tp189
a(I263384932
I960740695
tp190
a(I263386904
I263386905
tp191
a(I263386934
I263386933
tp192
a(I263386933
I263386685
tp193
a(I263386685
I1273570069
tp194
a(I1273570069
I263384930
tp195
a(I263384930
I263384438
tp196
a(I263386247
I263384933
tp197
a(I263384933
I4590040404
tp198
a(I263384347
I4341853024
tp199
a(I263386248
I263381111
tp200
a(I263381111
I263386169
tp201
a(I263386169
I263386120
tp202
a(I263386813
I263387030
tp203
a(I263387030
I263386905
tp204
a(I263386905
I263386934
tp205
a(I263386933
I263386904
tp206
a(I263386904
I263387031
tp207
a(I263110069
I263387182
tp208
a(I263387638
I263387773
tp209
a(I263387773
I263388054
tp210
a(I263388054
I263387774
tp211
a(I263387774
I263387775
tp212
a(I263387775
I263387776
tp213
a(I263387776
I1273591907
tp214
a(I1273591907
I263387778
tp215
a(I263387778
I2827667805
tp216
a(I263387776
I263387857
tp217
a(I263387857
I263387858
tp218
a(I263387858
I263387859
tp219
a(I263387859
I263384568
tp220
a(I263387773
I263387930
tp221
a(I263387858
I263388003
tp222
a(I263388003
I263388004
tp223
a(I263388004
I263387931
tp224
a(I263387931
I263388005
tp225
a(I263388005
I1432367019
tp226
a(I263388003
I263387774
tp227
a(I263388005
I263384567
tp228
a(I263388004
I263388054
tp229
a(I263388116
I2068555462
tp230
a(I2068555462
I2068555469
tp231
a(I2068555469
I263388115
tp232
a(I263388115
I263388114
tp233
a(I263388114
I263388113
tp234
a(I263388113
I263388112
tp235
a(I263388112
I263388739
tp236
a(I263388739
I263388111
tp237
a(I263388111
I263388110
tp238
a(I263388110
I263388109
tp239
a(I263388109
I263388108
tp240
a(I263388108
I263388107
tp241
a(I263388107
I263387635
tp242
a(I263387775
I263388127
tp243
a(I263388127
I4143584324
tp244
a(I263388108
I2068555502
tp245
a(I263388232
I263388231
tp246
a(I263388231
I263388230
tp247
a(I263388231
I263387636
tp248
a(I263388232
I2068555504
tp249
a(I263388266
I263388128
tp250
a(I263388266
I4143584330
tp251
a(I263388305
I263388303
tp252
a(I263388303
I2064693943
tp253
a(I263388107
I2064693945
tp254
a(I263387633
I263388312
tp255
a(I263388312
I263388234
tp256
a(I263388234
I4578585799
tp257
a(I263388981
I263388340
tp258
a(I263388340
I2068555439
tp259
a(I2068555439
I263388341
tp260
a(I263388520
I263388519
tp261
a(I263388519
I263388518
tp262
a(I263388110
I4261657231
tp263
a(I263388739
I263388740
tp264
a(I263388740
I263388335
tp265
a(I263388740
I263388741
tp266
a(I2060102918
I263388981
tp267
a(I263388981
I263388114
tp268
a(I263388519
I263388115
tp269
a(I263388115
I263388340
tp270
a(I263388340
I263389383
tp271
a(I263389383
I263389384
tp272
a(I263388238
I263389903
tp273
a(I263388523
I263389385
tp274
a(I263389385
I1273801848
tp275
a(I1273801848
I263389913
tp276
a(I263389907
I263389908
tp277
a(I263387630
I263387436
tp278
a(I263391186
I263391185
tp279
a(I263391185
I263391184
tp280
a(I263391184
I263391183
tp281
a(I263391183
I2068555335
tp282
a(I2068555335
I263391182
tp283
a(I263391182
I2068555384
tp284
a(I263390121
I263390194
tp285
a(I263110816
I1335966904
tp286
a(I263390254
I263390196
tp287
a(I263390196
I263389689
tp288
a(I263388240
I263390052
tp289
a(I263387437
I263387630
tp290
a(I263390550
I263390549
tp291
a(I263389695
I263389726
tp292
a(I263389726
I263391504
tp293
a(I263391504
I2068555360
tp294
a(I263391582
I2068555359
tp295
a(I263391580
I263389727
tp296
a(I263389727
I263389694
tp297
a(I263110815
I263389723
tp298
a(I263389723
I2064693887
tp299
a(I263391716
I2064693886
tp300
a(I263391581
I263391293
tp301
a(I263391293
I2068555370
tp302
a(I263391182
I2060102875
tp303
a(I263390883
I263390543
tp304
a(I263390543
I263390431
tp305
a(I263390431
I4482936082
tp306
a(I263392454
I4483052347
tp307
a(I263393294
I4482962699
tp308
a(I2068555315
I263388531
tp309
a(I263388531
I263390433
tp310
a(I263390433
I263393292
tp311
a(I263393292
I263390545
tp312
a(I263390545
I263390885
tp313
a(I263390885
I263391183
tp314
a(I263391183
I4341700933
tp315
a(I263109815
I1428542681
tp316
a(I1428542681
I263110796
tp317
a(I263395074
I263395073
tp318
a(I263395073
I263395072
tp319
a(I263395072
I2064693698
tp320
a(I263395070
I263395069
tp321
a(I263395069
I263395068
tp322
a(I263395068
I263395067
tp323
a(I263395067
I263394500
tp324
a(I263394499
I263395373
tp325
a(I263395373
I263395860
tp326
a(I263395860
I263395861
tp327
a(I2060102871
I263390550
tp328
a(I263390550
I263390437
tp329
a(I3669613448
I3725508782
tp330
a(I263396644
I263396645
tp331
a(I263396645
I263395069
tp332
a(I263395069
I263395861
tp333
a(I263395861
I4334261591
tp334
a(I263390890
I3725508784
tp335
a(I263395068
I263396851
tp336
a(I263396851
I263397031
tp337
a(I263393290
I263397270
tp338
a(I263397270
I263397271
tp339
a(I263397271
I263394501
tp340
a(I263394501
I263395374
tp341
a(I263395374
I263396851
tp342
a(I263396851
I263396645
tp343
a(I263396645
I263396852
tp344
a(I263396852
I263396853
tp345
a(I263394501
I263395375
tp346
a(I263395375
I263397841
tp347
a(I263397841
I263397380
tp348
a(I263397380
I263397621
tp349
a(I263397621
I4120129898
tp350
a(I263397622
I2064693790
tp351
a(I263393289
I263397838
tp352
a(I263397838
I263397839
tp353
a(I263397839
I263394502
tp354
a(I263394502
I263397840
tp355
a(I263397928
I263397838
tp356
a(I263397271
I263397839
tp357
a(I263397839
I263398006
tp358
a(I263397621
I263395376
tp359
a(I263395376
I263394503
tp360
a(I263394503
I263398006
tp361
a(I263398006
I263397928
tp362
a(I263110796
I2064693817
tp363
a(I263396853
I2064693705
tp364
a(I263398925
I263398927
tp365
a(I263397629
I263399303
tp366
a(I263399303
I4468933861
tp367
a(I263399305
I263399306
tp368
a(I263399620
I263399619
tp369
a(I263399619
I2547275317
tp370
a(I2547275317
I263399617
tp371
a(I263399617
I263397630
tp372
a(I263399306
I263110782
tp373
a(I263110782
I263109827
tp374
a(I263398921
I263400353
tp375
a(I263400353
I263399620
tp376
a(I263400734
I263400735
tp377
a(I263397631
I263400736
tp378
a(I263110785
I263399304
tp379
a(I263399304
I2547275317
tp380
a(I2547275317
I263398919
tp381
a(I263398931
I263395071
tp382
a(I263395071
I263401590
tp383
a(I263401823
I263389397
tp384
a(I263109826
I1428542706
tp385
a(I263403171
I263389401
tp386
a(I263389401
I263388545
tp387
a(I263403103
I263403724
tp388
a(I2062508482
I263403725
tp389
a(I263403726
I4325766721
tp390
a(I263404830
I263394504
tp391
a(I263394504
I263406376
tp392
a(I263406376
I4468934312
tp393
a(I263407470
I263402346
tp394
a(I263404833
I263394507
tp395
a(I263394507
I263406378
tp396
a(I263402350
I263408039
tp397
a(I263408039
I263406762
tp398
a(I263407802
I263408039
tp399
a(I263408039
I263408320
tp400
a(I263408320
I2064693721
tp401
a(I263358749
I263408975
tp402
a(I263408975
I2064693639
tp403
a(I263408973
I263408972
tp404
a(I263408972
I263402349
tp405
a(I263402347
I263409112
tp406
a(I263409112
I4326403386
tp407
a(I4326403381
I263409211
tp408
a(I263409210
I263409026
tp409
a(I4326403380
I4326403383
tp410
a(I263409210
I263409112
tp411
a(I263409112
I4467032444
tp412
a(I309998790
I309998999
tp413
a(I819210992
I915282488
tp414
a(I915282488
I819210958
tp415
a(I819210958
I2060102857
tp416
a(I316802006
I316802008
tp417
a(I799340933
I2055741260
tp418
a(I316803573
I316802013
tp419
a(I316803289
I817655091
tp420
a(I817655091
I4574299386
tp421
a(I799373627
I2055741655
tp422
a(I1273725431
I1273582415
tp423
a(I1273582415
I4608984964
tp424
a(I799340906
I316803295
tp425
a(I316803295
I316803297
tp426
a(I316802021
I4234975059
tp427
a(I2055553805
I316803493
tp428
a(I2055553806
I1836204828
tp429
a(I1836204828
I499717867
tp430
a(I499717867
I499719142
tp431
a(I499719142
I2055553808
tp432
a(I2055553808
I499751496
tp433
a(I499751496
I499773065
tp434
a(I499773065
I1273737524
tp435
a(I1273737524
I1836204830
tp436
a(I316802011
I316803558
tp437
a(I799341151
I1273650361
tp438
a(I1273650361
I2055741205
tp439
a(I2055741205
I799340840
tp440
a(I799340840
I1273606269
tp441
a(I4332896004
I4600819560
tp442
a(I1355562687
I4600819544
tp443
a(I4333043231
I2053915534
tp444
a(I1943098993
I378301200
tp445
a(I378301200
I874949434
tp446
a(I874949434
I638354694
tp447
a(I638354694
I874949399
tp448
a(I874949399
I638351769
tp449
a(I638351769
I378301236
tp450
a(I378301236
I2055741698
tp451
a(I308131630
I1428592193
tp452
a(I263114106
I2974698166
tp453
a(I503687605
I638346898
tp454
a(I638346898
I632697038
tp455
a(I632697038
I638346882
tp456
a(I638346882
I638351761
tp457
a(I638351761
I2058517352
tp458
a(I2058517352
I638346590
tp459
a(I638346590
I503691309
tp460
a(I528023636
I1943098982
tp461
a(I1943098982
I1943098876
tp462
a(I1943098876
I791159858
tp463
a(I791159858
I263389399
tp464
a(I263389399
I263388541
tp465
a(I263388541
I4466988006
tp466
a(I308131622
I2062508473
tp467
a(I1273479807
I1856595167
tp468
a(I1856595167
I3022713039
tp469
a(I4325766718
I4333022367
tp470
a(I331597586
I263384497
tp471
a(I263384571
I263384572
tp472
a(I263111589
I263108220
tp473
a(I263113382
I263111590
tp474
a(I263111591
I263108221
tp475
a(I632697040
I632697038
tp476
a(I632697038
I632697036
tp477
a(I632697036
I632697315
tp478
a(I632697315
I632696211
tp479
a(I632697086
I632697315
tp480
a(I638346653
I638346882
tp481
a(I638346882
I638346885
tp482
a(I638346885
I638346888
tp483
a(I638346888
I2058517344
tp484
a(I638346891
I638346894
tp485
a(I638346894
I638346898
tp486
a(I638350408
I2058517276
tp487
a(I1273479443
I2058517254
tp488
a(I2058517254
I638350279
tp489
a(I638350507
I2058517279
tp490
a(I2058517279
I638350508
tp491
a(I638350508
I2058517283
tp492
a(I638351100
I638350511
tp493
a(I638352372
I638350511
tp494
a(I638350511
I638352478
tp495
a(I638353467
I638353379
tp496
a(I1843209608
I638363146
tp497
a(I638363146
I2055741699
tp498
a(I638359762
I2057539435
tp499
a(I1843209607
I1273606083
tp500
a(I799373528
I874949293
tp501
a(I874949293
I2055741666
tp502
a(I2055741666
I874948983
tp503
a(I874948983
I1273821219
tp504
a(I1273821219
I638354695
tp505
a(I638356998
I638357936
tp506
a(I638357936
I638358082
tp507
a(I638358082
I2057539441
tp508
a(I638351102
I1843209607
tp509
a(I1843209607
I1843209608
tp510
a(I1843209608
I638351766
tp511
a(I638351766
I874949404
tp512
a(I874949404
I638353818
tp513
a(I638353818
I874949431
tp514
a(I874949431
I638356257
tp515
a(I638361010
I638363141
tp516
a(I638363141
I638363143
tp517
a(I638363143
I638363146
tp518
a(I660656428
I2054187159
tp519
a(I2054187159
I660661135
tp520
a(I660661135
I660660077
tp521
a(I660660077
I660661108
tp522
a(I660661108
I2054187170
tp523
a(I2054187170
I670348741
tp524
a(I670348741
I670360999
tp525
a(I670360999
I670361374
tp526
a(I670361374
I2059583479
tp527
a(I660666489
I670363212
tp528
a(I670363212
I660657172
tp529
a(I2059583509
I660671980
tp530
a(I660671980
I670386406
tp531
a(I670386406
I660675337
tp532
a(I660675337
I2059583515
tp533
a(I2059583515
I674937393
tp534
a(I674937393
I660657434
tp535
a(I660657434
I660657169
tp536
a(I660657169
I660657170
tp537
a(I660657170
I2057539409
tp538
a(I874949927
I2429826786
tp539
a(I670402126
I670402125
tp540
a(I670402125
I2059583463
tp541
a(I670402123
I2059583469
tp542
a(I670360991
I4471976661
tp543
a(I670366829
I4511027037
tp544
a(I670361366
I670349073
tp545
a(I674941945
I674939563
tp546
a(I674944534
I874949943
tp547
a(I874949943
I674944770
tp548
a(I674944773
I660657176
tp549
a(I660657176
I2057539417
tp550
a(I799340788
I799340790
tp551
a(I799340790
I799340792
tp552
a(I799340794
I799340827
tp553
a(I799340827
I799341036
tp554
a(I799341036
I799340820
tp555
a(I799373643
I2055741596
tp556
a(I316803293
I316803102
tp557
a(I1354755319
I799340882
tp558
a(I799340882
I799340816
tp559
a(I799340816
I799340885
tp560
a(I799340885
I799340886
tp561
a(I799340886
I799340888
tp562
a(I799340888
I799340891
tp563
a(I799340905
I799340906
tp564
a(I799340906
I4333962622
tp565
a(I799340920
I2055741466
tp566
a(I799340926
I799340928
tp567
a(I316802009
I2055741320
tp568
a(I799340978
I2055741443
tp569
a(I799340986
I1354755319
tp570
a(I1354755319
I2055741568
tp571
a(I316803295
I674944534
tp572
a(I2055741403
I799341076
tp573
a(I799341076
I799341069
tp574
a(I799341069
I799341063
tp575
a(I799341063
I799341059
tp576
a(I799341059
I799341054
tp577
a(I799341054
I799341036
tp578
a(I799341036
I799341031
tp579
a(I799341031
I799340920
tp580
a(I799340978
I799340926
tp581
a(I799341031
I2055741440
tp582
a(I799341096
I799341143
tp583
a(I799373528
I799373532
tp584
a(I799373532
I799373538
tp585
a(I799373538
I799373542
tp586
a(I799373542
I1273716599
tp587
a(I1273716599
I799340893
tp588
a(I799340893
I1399076899
tp589
a(I1399076899
I2055741403
tp590
a(I2055741403
I2055741330
tp591
a(I799373606
I799373609
tp592
a(I799373609
I1273564767
tp593
a(I1273564767
I2055741330
tp594
a(I799373643
I799373653
tp595
a(I799373653
I799373662
tp596
a(I799373662
I799373675
tp597
a(I799373675
I799373619
tp598
a(I799341063
I1399076946
tp599
a(I1399076946
I799340888
tp600
a(I799340888
I1399076934
tp601
a(I1399076934
I799373675
tp602
a(I799341054
I2055741486
tp603
a(I799340885
I4429454318
tp604
a(I799373805
I799373799
tp605
a(I799373799
I2055741368
tp606
a(I799373836
I316803291
tp607
a(I316803291
I799373831
tp608
a(I1399076931
I799340886
tp609
a(I799340886
I799373819
tp610
a(I799373819
I799341059
tp611
a(I799341059
I799373818
tp612
a(I799373818
I799373776
tp613
a(I593974679
I819211313
tp614
a(I819211313
I915282612
tp615
a(I915282612
I819211295
tp616
a(I819211295
I819211075
tp617
a(I817654838
I819211391
tp618
a(I817654852
I817654860
tp619
a(I817654860
I1355562709
tp620
a(I819210958
I819210954
tp621
a(I819210954
I2053915353
tp622
a(I263402345
I1943098944
tp623
a(I1943098944
I1943099017
tp624
a(I1943099017
I819211122
tp625
a(I819211122
I819211120
tp626
a(I819211120
I3023677862
tp627
a(I874898576
I874898577
tp628
a(I874898577
I874898556
tp629
a(I874898555
I874898582
tp630
a(I874898582
I874898585
tp631
a(I316802024
I874898600
tp632
a(I874898591
I874898577
tp633
a(I874898594
I874898610
tp634
a(I874898610
I874898533
tp635
a(I874898533
I874898613
tp636
a(I874898610
I874898618
tp637
a(I874898618
I2055553804
tp638
a(I874898675
I874898659
tp639
a(I874898659
I874898678
tp640
a(I874898532
I874898591
tp641
a(I874898591
I874898685
tp642
a(I316803299
I2055553984
tp643
a(I874948983
I874948986
tp644
a(I874948986
I874948990
tp645
a(I874949002
I874948986
tp646
a(I874949014
I2057539413
tp647
a(I874949057
I874949117
tp648
a(I874949172
I874949179
tp649
a(I874949179
I874949182
tp650
a(I874949201
I2057539422
tp651
a(I1273955676
I2057539368
tp652
a(I2057539368
I874949034
tp653
a(I874949034
I1354755331
tp654
a(I1354755331
I1273750595
tp655
a(I1273750595
I799340905
tp656
a(I874949034
I2057539312
tp657
a(I2057539312
I874949267
tp658
a(I874949267
I2057539300
tp659
a(I2057539305
I874949274
tp660
a(I874949274
I874949283
tp661
a(I874949283
I2057539318
tp662
a(I874949079
I874949128
tp663
a(I874949128
I1273728972
tp664
a(I1273728972
I874949274
tp665
a(I874949083
I874948990
tp666
a(I874948990
I874949283
tp667
a(I874949283
I874949321
tp668
a(I874949321
I2057539273
tp669
a(I874949392
I874949399
tp670
a(I874949399
I2055741704
tp671
a(I874949431
I2055741708
tp672
a(I2055741708
I874949434
tp673
a(I874949459
I874949461
tp674
a(I874949461
I874949465
tp675
a(I874949775
I1273702033
tp676
a(I1273702033
I2057539274
tp677
a(I2057539274
I874949781
tp678
a(I874949793
I874949808
tp679
a(I874949808
I874949812
tp680
a(I874949812
I1273728170
tp681
a(I1273728170
I874949815
tp682
a(I874949815
I316803100
tp683
a(I874949825
I874949812
tp684
a(I874949927
I2057539381
tp685
a(I1273827220
I874949920
tp686
a(I874949920
I874949917
tp687
a(I874949917
I316803299
tp688
a(I316809593
I674941948
tp689
a(I674941948
I874949920
tp690
a(I874949920
I874949781
tp691
a(I874949781
I874949815
tp692
a(I874949815
I874949943
tp693
a(I874949943
I1354755331
tp694
a(I2057539368
I674944773
tp695
a(I674944773
I2057539355
tp696
a(I2057539355
I874949808
tp697
a(I874949808
I874949775
tp698
a(I874949775
I874949924
tp699
a(I874949924
I874949958
tp700
a(I915282248
I915282687
tp701
a(I915282687
I799373606
tp702
a(I2057539274
I1273655219
tp703
a(I1273655219
I1273728170
tp704
a(I1273720438
I2062508504
tp705
a(I1273732208
I1273877728
tp706
a(I1273877728
I4234975014
tp707
a(I1273485844
I1273820269
tp708
a(I1273843638
I1399076816
tp709
a(I263387857
I1273896803
tp710
a(I263357993
I263357761
tp711
a(I263357761
I263122141
tp712
a(I263122141
I1639104067
tp713
a(I1273821219
I874949002
tp714
a(I1273725431
I1273900542
tp715
a(I1425922104
I263387859
tp716
a(I108171115
I263113206
tp717
a(I263113206
I263113205
tp718
a(I263113205
I263113204
tp719
a(I263113204
I263113203
tp720
a(I263113203
I263113202
tp721
a(I263113202
I263111352
tp722
a(I263111352
I263113201
tp723
a(I263113201
I263113200
tp724
a(I263113200
I263113198
tp725
a(I263113198
I4148021792
tp726
a(I4148021792
I263112658
tp727
a(I263112658
I263112747
tp728
a(I263112747
I263112857
tp729
a(I263112857
I263112175
tp730
a(I1273750595
I1273532108
tp731
a(I263388534
I1273667679
tp732
a(I1399063392
I1273831075
tp733
a(I1399063257
I1399063217
tp734
a(I1273708926
I1273465660
tp735
a(I1273850923
I1273819464
tp736
a(I4325766721
I2062508478
tp737
a(I1334827354
I1273875123
tp738
a(I1273875123
I1273982886
tp739
a(I1273982886
I2062508468
tp740
a(I2062508468
I1273790722
tp741
a(I1273790722
I1273878512
tp742
a(I4325766718
I4325766723
tp743
a(I4325766723
I4325766726
tp744
a(I4325766726
I1856595160
tp745
a(I1273607350
I1273650361
tp746
a(I1273900542
I2057539235
tp747
a(I4332972863
I308131773
tp748
a(I1273479807
I1856595165
tp749
a(I1856595165
I1273467913
tp750
a(I1273467913
I2062508470
tp751
a(I2062508470
I1273778977
tp752
a(I1273778977
I1855181942
tp753
a(I799373609
I2055741242
tp754
a(I2055741603
I799373542
tp755
a(I799373542
I1273547434
tp756
a(I1273547434
I1399076862
tp757
a(I1399076862
I1273765502
tp758
a(I1273765502
I1273925981
tp759
a(I1273925981
I1273644938
tp760
a(I1273840285
I1273705796
tp761
a(I799341107
I799373799
tp762
a(I2055741223
I2053915552
tp763
a(I2053915552
I1399063392
tp764
a(I1399063392
I1399063383
tp765
a(I1273798267
I1425922016
tp766
a(I1273677739
I4139686846
tp767
a(I263359071
I263121085
tp768
a(I263121085
I263121288
tp769
a(I263121288
I263122092
tp770
a(I263122092
I1273804793
tp771
a(I1273982579
I1399076916
tp772
a(I1399076916
I1399076896
tp773
a(I1273515669
I4465528558
tp774
a(I1273631418
I1273830381
tp775
a(I1273504670
I1273743827
tp776
a(I1273856652
I2053915465
tp777
a(I1273955676
I1273504223
tp778
a(I1273743827
I2055741518
tp779
a(I1273952775
I1273661375
tp780
a(I1273661375
I1273765502
tp781
a(I1842306695
I1842306697
tp782
a(I1273622009
I1399063402
tp783
a(I1399063402
I1273591861
tp784
a(I1273733528
I1273714974
tp785
a(I1273714974
I1273589372
tp786
a(I1273589372
I2058517209
tp787
a(I1273502843
I1273558952
tp788
a(I1273558952
I1273959822
tp789
a(I1273465991
I2055741515
tp790
a(I1399076844
I1273661375
tp791
a(I4333981474
I1396409221
tp792
a(I1396409221
I1399063300
tp793
a(I1399063300
I1273961987
tp794
a(I1273961987
I1396409220
tp795
a(I1396409220
I2053915391
tp796
a(I1396409219
I2053915427
tp797
a(I263384692
I263384684
tp798
a(I263384684
I263384653
tp799
a(I263384653
I263377506
tp800
a(I263377506
I4143749852
tp801
a(I263390892
I263395862
tp802
a(I263395862
I263395070
tp803
a(I263395070
I263396852
tp804
a(I263396852
I263400736
tp805
a(I108064653
I108171092
tp806
a(I108171092
I263358754
tp807
a(I263358754
I263402351
tp808
a(I263402351
I263402350
tp809
a(I263402350
I263402349
tp810
a(I263402349
I263407804
tp811
a(I263407804
I263402347
tp812
a(I263402347
I263409026
tp813
a(I263409026
I4347817305
tp814
a(I263357751
I263357752
tp815
a(I263357752
I1658531706
tp816
a(I1658531706
I263357755
tp817
a(I263357755
I263357756
tp818
a(I263357756
I263357757
tp819
a(I263357757
I263357758
tp820
a(I263357758
I263357759
tp821
a(I263357759
I263357760
tp822
a(I263357760
I263357761
tp823
a(I263357761
I263357762
tp824
a(I263357762
I263357763
tp825
a(I263357763
I263357764
tp826
a(I263357764
I263357765
tp827
a(I263112179
I263112180
tp828
a(I263111216
I4214554095
tp829
a(I263114460
I4578585825
tp830
a(I1425922080
I263110069
tp831
a(I263384504
I263384565
tp832
a(I263384565
I4580618462
tp833
a(I263111215
I1273705796
tp834
a(I1273705796
I263112179
tp835
a(I263111593
I4326991594
tp836
a(I4326991594
I263112658
tp837
a(I263383496
I263384611
tp838
a(I638351769
I3992462851
tp839
a(I874949465
I874949182
tp840
a(I874949182
I674944808
tp841
a(I674944808
I874949201
tp842
a(I874949201
I874949020
tp843
a(I874949020
I638354740
tp844
a(I874949059
I2057539404
tp845
a(I874949079
I2057539410
tp846
a(I316803097
I316809676
tp847
a(I674939488
I2059583470
tp848
a(I2059583470
I4471972851
tp849
a(I660657169
I660658125
tp850
a(I660658125
I1273945622
tp851
a(I1273945622
I1273714974
tp852
a(I1273714974
I660673369
tp853
a(I316809596
I316803527
tp854
a(I316803527
I1273688976
tp855
a(I1273926218
I1273824171
tp856
a(I1273824171
I1273928147
tp857
a(I1273928147
I1273622009
tp858
a(I1273622009
I4471963837
tp859
a(I1273450164
I1273755995
tp860
a(I1273755995
I1273527183
tp861
a(I1273527183
I1396409220
tp862
a(I1396409220
I1399063270
tp863
a(I1273750305
I4600819814
tp864
a(I1273517683
I1273844946
tp865
a(I1273844946
I1273846593
tp866
a(I1273846593
I1399063106
tp867
a(I1399063215
I1399063255
tp868
a(I1399063255
I1399063262
tp869
a(I1399063262
I1399063266
tp870
a(I1399063266
I1399063267
tp871
a(I1399063322
I1399063324
tp872
a(I1399063324
I1273876682
tp873
a(I1273876682
I1273709695
tp874
a(I1399063357
I1273457452
tp875
a(I1273457452
I2053915467
tp876
a(I1399063322
I1399063272
tp877
a(I1399063272
I1399063317
tp878
a(I1273876682
I2053915519
tp879
a(I1273591616
I1273750305
tp880
a(I1273750305
I1399063278
tp881
a(I1399063278
I1399063324
tp882
a(I1399063266
I1399063402
tp883
a(I1399076831
I1273940189
tp884
a(I1399076840
I4511056921
tp885
a(I1399076862
I4429460175
tp886
a(I1399076879
I799340893
tp887
a(I1273900115
I4465528559
tp888
a(I1399076879
I1273515669
tp889
a(I1399076899
I1399076916
tp890
a(I1399076931
I1399076934
tp891
a(I799373819
I1399076946
tp892
a(I3743408663
I1425922084
tp893
a(I1425922084
I1425922012
tp894
a(I1425922012
I1425921988
tp895
a(I1425921988
I4486012085
tp896
a(I1425922069
I1425922042
tp897
a(I1425922042
I1425922047
tp898
a(I1425922047
I1425922019
tp899
a(I1425922019
I1425921994
tp900
a(I1425921994
I4542277491
tp901
a(I1425922073
I1425922080
tp902
a(I1425922080
I1428455576
tp903
a(I1428455547
I1428455558
tp904
a(I1428455558
I1428455566
tp905
a(I1841915494
I1428455552
tp906
a(I1428455552
I1428455578
tp907
a(I1428455574
I1428542681
tp908
a(I1428542681
I1428542691
tp909
a(I1428542683
I1428542693
tp910
a(I1428542693
I4590009932
tp911
a(I1428542703
I1428542713
tp912
a(I263114460
I263114543
tp913
a(I263111043
I263110989
tp914
a(I263384428
I1273606923
tp915
a(I1273606923
I263384796
tp916
a(I263384796
I263385020
tp917
a(I263385020
I263384502
tp918
a(I1273896803
I1425922104
tp919
a(I263109813
I263404830
tp920
a(I263404830
I263404831
tp921
a(I263404831
I263404833
tp922
a(I263404833
I263404834
tp923
a(I263404834
I263360294
tp924
a(I263395371
I263390889
tp925
a(I263390889
I2068555316
tp926
a(I2068555316
I263395373
tp927
a(I263395373
I263395067
tp928
a(I263395067
I263395374
tp929
a(I263111590
I263113200
tp930
a(I263113200
I2974698164
tp931
a(I263111220
I263112182
tp932
a(I263112182
I263121293
tp933
a(I263360158
I2064693880
tp934
a(I263389691
I263389729
tp935
a(I263389729
I263390253
tp936
a(I263390253
I263391293
tp937
a(I263391293
I4341700933
tp938
a(I4341700933
I263391184
tp939
a(I263392061
I263392527
tp940
a(I263388527
I263390429
tp941
a(I263389984
I263389386
tp942
a(I263389386
I263388246
tp943
a(I263388246
I263388245
tp944
a(I263388245
I263388244
tp945
a(I263388242
I2060102920
tp946
a(I263357989
I263357991
tp947
a(I263357991
I263357992
tp948
a(I263357992
I263357993
tp949
a(I263357993
I2064693934
tp950
a(I263357995
I263357996
tp951
a(I263357996
I263357997
tp952
a(I263357997
I2064693906
tp953
a(I263357999
I263358000
tp954
a(I263358000
I263358001
tp955
a(I263358001
I263358002
tp956
a(I263122147
I263122086
tp957
a(I263122147
I263357768
tp958
a(I263357768
I263109790
tp959
a(I263121078
I263121079
tp960
a(I263121079
I263121080
tp961
a(I263121080
I263121081
tp962
a(I263121081
I263121082
tp963
a(I263121082
I263121083
tp964
a(I263121083
I263121084
tp965
a(I263121084
I263121085
tp966
a(I263121085
I263121086
tp967
a(I263121086
I263121087
tp968
a(I263121087
I263121088
tp969
a(I263121088
I263121089
tp970
a(I1856595158
I1856595160
tp971
a(I1856595160
I3340703368
tp972
a(I3340703368
I1334827354
tp973
a(I1334827354
I1273890947
tp974
a(I1273890947
I2060102854
tp975
a(I1873952207
I1873952232
tp976
a(I1873952232
I263399620
tp977
a(I263399620
I1873952235
tp978
a(I1873952235
I1873952218
tp979
a(I1873952235
I1873952227
tp980
a(I1943098867
I1943098899
tp981
a(I1399063383
I1273570380
tp982
a(I1273570380
I1399063385
tp983
a(I1273831075
I2053915508
tp984
a(I2053915562
I2053915573
tp985
a(I1399063357
I1273807650
tp986
a(I2055741330
I799341076
tp987
a(I799341076
I799340891
tp988
a(I799340891
I2057539190
tp989
a(I2057539190
I799373619
tp990
a(I799373619
I2055741603
tp991
a(I2055741603
I1273978797
tp992
a(I1273978797
I4574301190
tp993
a(I1355562687
I2053915533
tp994
a(I799373538
I2055741659
tp995
a(I2055741329
I2055741264
tp996
a(I817655091
I2055741663
tp997
a(I2055741663
I2055741661
tp998
a(I2055741661
I817655147
tp999
a(I799340790
I2055741212
tp1000
a(I674944808
I674944810
tp1001
a(I674944810
I2055741696
tp1002
a(I817655012
I1273469940
tp1003
a(I1273469940
I3335514006
tp1004
a(I3335514006
I3335514009
tp1005
a(I819211388
I819211246
tp1006
a(I1842306695
I1842306694
tp1007
a(I2055741698
I3992463165
tp1008
a(I638359533
I4483037707
tp1009
a(I638359192
I378301302
tp1010
a(I378301302
I660673369
tp1011
a(I2055741689
I2055741688
tp1012
a(I2055741688
I2055741682
tp1013
a(I2055741666
I2055741668
tp1014
a(I2055741698
I2055741699
tp1015
a(I2055741699
I3992462829
tp1016
a(I2055741704
I2055741706
tp1017
a(I2055741706
I2055741708
tp1018
a(I2055741708
I3992453076
tp1019
a(I263392068
I263389389
tp1020
a(I263389389
I3104396887
tp1021
a(I263388528
I263390430
tp1022
a(I263390430
I263390542
tp1023
a(I263390542
I263390882
tp1024
a(I263390882
I263392407
tp1025
a(I263392407
I2068555385
tp1026
a(I263390124
I2068555388
tp1027
a(I2064693885
I263390253
tp1028
a(I263390253
I263391580
tp1029
a(I2057539312
I2057539317
tp1030
a(I874949057
I1273504223
tp1031
a(I1273504223
I874949059
tp1032
a(I2057539412
I2057539400
tp1033
a(I2057539309
I2057539306
tp1034
a(I2057539256
I2057539254
tp1035
a(I2057539309
I2057539256
tp1036
a(I2057539426
I674943374
tp1037
a(I674943374
I674944115
tp1038
a(I674944115
I674943375
tp1039
a(I316803102
I2057539231
tp1040
a(I2059583470
I670402124
tp1041
a(I503691309
I638351099
tp1042
a(I638351099
I638351100
tp1043
a(I638351100
I638353379
tp1044
a(I638353379
I638350408
tp1045
a(I638350408
I638351101
tp1046
a(I638363141
I638359533
tp1047
a(I638359533
I2057539426
tp1048
a(I819211297
I3023677842
tp1049
a(I819211295
I819211293
tp1050
a(I819211293
I819211251
tp1051
a(I819211251
I819210802
tp1052
a(I819210802
I2053915321
tp1053
a(I2053915321
I2053915315
tp1054
a(I819210877
I819211286
tp1055
a(I819211286
I819211281
tp1056
a(I263407803
I263411156
tp1057
a(I263389731
I2064693885
tp1058
a(I263401590
I263395863
tp1059
a(I263395863
I263390439
tp1060
a(I263390439
I263388537
tp1061
a(I263388537
I263401591
tp1062
a(I263401591
I817655015
tp1063
a(I263358760
I263360295
tp1064
a(I263360295
I263408038
tp1065
a(I263408038
I263394507
tp1066
a(I263394507
I263394506
tp1067
a(I263394506
I263394504
tp1068
a(I263394504
I263109815
tp1069
a(I263402346
I263411156
tp1070
a(I263411156
I263400738
tp1071
a(I263400738
I263406760
tp1072
a(I263390307
I2064693920
tp1073
a(I263390310
I263390312
tp1074
a(I263390312
I263388526
tp1075
a(I263388526
I263389387
tp1076
a(I263389387
I263390313
tp1077
a(I263390313
I3992441921
tp1078
a(I2068555330
I2068555315
tp1079
a(I2068555469
I2068555439
tp1080
a(I3104396886
I263390887
tp1081
a(I263390887
I2068555316
tp1082
a(I4341700933
I2068555335
tp1083
a(I2086871325
I263121087
tp1084
a(I263121087
I263121290
tp1085
a(I263121290
I263122090
tp1086
a(I262730858
I262730859
tp1087
a(I262730859
I263111211
tp1088
a(I263111211
I263111212
tp1089
a(I263111212
I263111214
tp1090
a(I263111214
I4214554091
tp1091
a(I263111216
I4580596368
tp1092
a(I1273869242
I1873952201
tp1093
a(I263395074
I1873952203
tp1094
a(I2793008248
I4139686841
tp1095
a(I472209412
I4560591758
tp1096
a(I2974698166
I263113044
tp1097
a(I263113044
I4560591869
tp1098
a(I263113049
I263112958
tp1099
a(I263112958
I4560591738
tp1100
a(I263110071
I1425922019
tp1101
a(I1425922019
I263109773
tp1102
a(I263109773
I4542308157
tp1103
a(I263390027
I263387437
tp1104
a(I2840596718
I4578541087
tp1105
a(I2209660425
I263109786
tp1106
a(I263109786
I1335966916
tp1107
a(I1335966916
I263110816
tp1108
a(I263384566
I263384567
tp1109
a(I263384567
I263384568
tp1110
a(I263384568
I3854554750
tp1111
a(I263109786
I4578574038
tp1112
a(I263357750
I263109790
tp1113
a(I263110816
I2840596721
tp1114
a(I263110070
I263110071
tp1115
a(I263109773
I263109774
tp1116
a(I263389687
I4578541392
tp1117
a(I263389689
I2064693911
tp1118
a(I263389691
I263389692
tp1119
a(I263389694
I263389695
tp1120
a(I263389695
I2064693907
tp1121
a(I263390197
I263390196
tp1122
a(I263390196
I263390121
tp1123
a(I263110814
I263110815
tp1124
a(I263389732
I263390307
tp1125
a(I263390307
I4578581724
tp1126
a(I263389687
I263389733
tp1127
a(I263390121
I263390064
tp1128
a(I263110814
I263389723
tp1129
a(I263389723
I263389724
tp1130
a(I263389726
I263389727
tp1131
a(I263389727
I2064693896
tp1132
a(I263389731
I4578541393
tp1133
a(I308131653
I4332972865
tp1134
a(I263110071
I263384728
tp1135
a(I263384728
I4143749842
tp1136
a(I1943098881
I4334049664
tp1137
a(I638351759
I638351761
tp1138
a(I638351761
I638351764
tp1139
a(I638351764
I638353688
tp1140
a(I638353688
I638351766
tp1141
a(I638351766
I2055741703
tp1142
a(I2055741703
I638351769
tp1143
a(I263110069
I2793008249
tp1144
a(I638351759
I2058517413
tp1145
a(I2058517413
I638346653
tp1146
a(I638346653
I2058517423
tp1147
a(I2058517423
I632697036
tp1148
a(I632697036
I2055741713
tp1149
a(I263109777
I263109778
tp1150
a(I263109778
I4578585829
tp1151
a(I263109782
I263109783
tp1152
a(I263390005
I4578581742
tp1153
a(I263109777
I263111855
tp1154
a(I263111855
I263112384
tp1155
a(I263112384
I4214554098
tp1156
a(I1273469440
I2055741716
tp1157
a(I263122138
I1273804793
tp1158
a(I1273804793
I263122139
tp1159
a(I263122139
I1639104063
tp1160
a(I1639104063
I263122141
tp1161
a(I263122141
I263122142
tp1162
a(I263122142
I263122143
tp1163
a(I263122143
I263122144
tp1164
a(I263122144
I263122145
tp1165
a(I263122145
I263122146
tp1166
a(I263122146
I263122147
tp1167
a(I263122147
I263122148
tp1168
a(I263122148
I4578581776
tp1169
a(I263122148
I263109788
tp1170
a(I263108229
I4143715086
tp1171
a(I263110989
I263110990
tp1172
a(I263110990
I263109774
tp1173
a(I263109774
I1425921994
tp1174
a(I1425921994
I263110070
tp1175
a(I108171113
I263114438
tp1176
a(I263114442
I263114443
tp1177
a(I263114443
I263114444
tp1178
a(I263114444
I263114445
tp1179
a(I263114445
I263114446
tp1180
a(I2854447005
I2086871325
tp1181
a(I2086871325
I263114454
tp1182
a(I263384791
I263384067
tp1183
a(I263384067
I263384065
tp1184
a(I263384065
I263384064
tp1185
a(I263384064
I263380578
tp1186
a(I263380578
I263377075
tp1187
a(I263377075
I263380575
tp1188
a(I263108214
I4554075091
tp1189
a(I263108216
I263108217
tp1190
a(I263108217
I263108218
tp1191
a(I263108218
I4343596327
tp1192
a(I263113382
I263108221
tp1193
a(I263108221
I4607175958
tp1194
a(I263108223
I4148021790
tp1195
a(I4148021790
I263108225
tp1196
a(I263108225
I263108226
tp1197
a(I263108226
I4214544500
tp1198
a(I263108228
I263108229
tp1199
a(I263109810
I3992397004
tp1200
a(I263109813
I263109815
tp1201
a(I4333043231
I316802016
tp1202
a(I263384613
I263384615
tp1203
a(I263384647
I263384613
tp1204
a(I263384647
I263384649
tp1205
a(I263387436
I263390004
tp1206
a(I263121293
I263359439
tp1207
a(I263359439
I263121292
tp1208
a(I263121292
I263121291
tp1209
a(I263121291
I263121290
tp1210
a(I263121290
I263121289
tp1211
a(I263121289
I263121288
tp1212
a(I263121288
I263121287
tp1213
a(I263121287
I263121286
tp1214
a(I263121286
I263121285
tp1215
a(I263121285
I263121284
tp1216
a(I263121284
I263121283
tp1217
a(I263121283
I263121282
tp1218
a(I263121282
I108171106
tp1219
a(I316803518
I316802006
tp1220
a(I316802016
I316802017
tp1221
a(I316802021
I316803405
tp1222
a(I316803405
I316802024
tp1223
a(I316802024
I316802026
tp1224
a(I4035090782
I4035090780
tp1225
a(I308131622
I308131623
tp1226
a(I4332972863
I308131625
tp1227
a(I4332972865
I308131630
tp1228
a(I308131630
I308131617
tp1229
a(I2060102856
I3023677852
tp1230
a(I1943099017
I1943099023
tp1231
a(I1943099023
I1943099004
tp1232
a(I1943099004
I1943098920
tp1233
a(I263383554
I4341834800
tp1234
a(I263384428
I263384430
tp1235
a(I263384434
I263384435
tp1236
a(I263384435
I263384436
tp1237
a(I263384436
I263384437
tp1238
a(I263384437
I263384438
tp1239
a(I263384438
I263384439
tp1240
a(I263384439
I1943098893
tp1241
a(I263110799
I263110800
tp1242
a(I263397632
I2064693751
tp1243
a(I263393294
I263392919
tp1244
a(I263392919
I263395368
tp1245
a(I263395368
I263396343
tp1246
a(I263396343
I263400734
tp1247
a(I263397625
I263397626
tp1248
a(I263400736
I263399617
tp1249
a(I263399617
I263399303
tp1250
a(I263399303
I263110787
tp1251
a(I263400734
I817655015
tp1252
a(I817655015
I263401823
tp1253
a(I263401823
I263402345
tp1254
a(I263402345
I791159858
tp1255
a(I791159858
I4334141387
tp1256
a(I263403171
I1856595169
tp1257
a(I263400736
I263398916
tp1258
a(I263112182
I263112183
tp1259
a(I263112183
I263122148
tp1260
a(I263387436
I263387437
tp1261
a(I263112179
I263114100
tp1262
a(I263114100
I263113049
tp1263
a(I263113049
I4560591739
tp1264
a(I2073408910
I263114106
tp1265
a(I263114106
I4560591734
tp1266
a(I263111351
I2073408932
tp1267
a(I263114110
I263114112
tp1268
a(I263114112
I263114113
tp1269
a(I263114113
I263114114
tp1270
a(I263114114
I263114115
tp1271
a(I263114115
I263114116
tp1272
a(I263109790
I263109791
tp1273
a(I263109791
I4578554731
tp1274
a(I263109793
I263109794
tp1275
a(I263109794
I4483083358
tp1276
a(I263389391
I263389392
tp1277
a(I263389392
I263389393
tp1278
a(I263390890
I3669613448
tp1279
a(I263395368
I263389393
tp1280
a(I263389393
I263388533
tp1281
a(I263388533
I263390435
tp1282
a(I263390435
I263390548
tp1283
a(I263390548
I263395371
tp1284
a(I263395371
I263390887
tp1285
a(I263389393
I263389394
tp1286
a(I263390437
I263390438
tp1287
a(I2991672873
I1273986850
tp1288
a(I2054187127
I1273964255
tp1289
a(I1273964255
I660656187
tp1290
a(I660656187
I2054187130
tp1291
a(I2054187130
I316803090
tp1292
a(I316803090
I670349075
tp1293
a(I670349075
I2055554060
tp1294
a(I316803092
I670366830
tp1295
a(I670366830
I670371081
tp1296
a(I670371081
I660671994
tp1297
a(I660671994
I316803093
tp1298
a(I874903661
I4511049195
tp1299
a(I674939565
I2055554061
tp1300
a(I263390892
I2060102871
tp1301
a(I263390435
I1273667679
tp1302
a(I1273667679
I263390436
tp1303
a(I263390436
I263390437
tp1304
a(I263397031
I263397634
tp1305
a(I1399076796
I1273644938
tp1306
a(I1273644938
I309999004
tp1307
a(I1943098920
I1943098906
tp1308
a(I1943098906
I4482962710
tp1309
a(I263397626
I4124275685
tp1310
a(I263397629
I4120129888
tp1311
a(I263389733
I2060102953
tp1312
a(I2840596721
I4578581770
tp1313
a(I263390887
I263390889
tp1314
a(I263390889
I263390890
tp1315
a(I3104396886
I4482830778
tp1316
a(I263389733
I263390050
tp1317
a(I263390054
I2060102904
tp1318
a(I263390882
I4483052327
tp1319
a(I263390885
I2060102873
tp1320
a(I263390887
I263394497
tp1321
a(I263394497
I263395066
tp1322
a(I817655147
I1273925981
tp1323
a(I1273925981
I1273489450
tp1324
a(I1273489450
I1273815536
tp1325
a(I1273815536
I817654982
tp1326
a(I817654982
I3335514006
tp1327
a(I3335514006
I2053915573
tp1328
a(I2053915573
I817654861
tp1329
a(I817654861
I819211120
tp1330
a(I819211120
I3023677856
tp1331
a(I819211216
I819210954
tp1332
a(I696749354
I263403726
tp1333
a(I263403726
I3022712832
tp1334
a(I263389402
I696749354
tp1335
a(I696749354
I4325766718
tp1336
a(I263389402
I3022713078
tp1337
a(I263109815
I2064693808
tp1338
a(I309999004
I4482962709
tp1339
a(I263389398
I263389399
tp1340
a(I263389399
I3023663220
tp1341
a(I263389401
I263389402
tp1342
a(I263389394
I263400735
tp1343
a(I819211109
I819211101
tp1344
a(I819211101
I819211095
tp1345
a(I819211109
I819211064
tp1346
a(I819211064
I819211293
tp1347
a(I819211293
I1355562681
tp1348
a(I1355562681
I817654752
tp1349
a(I263389398
I263402345
tp1350
a(I1943098890
I4143584349
tp1351
a(I263358429
I263358430
tp1352
a(I263358429
I263357996
tp1353
a(I263357996
I263357759
tp1354
a(I263357759
I263122138
tp1355
a(I263358757
I263406763
tp1356
a(I263406763
I263406762
tp1357
a(I263406762
I2980047104
tp1358
a(I2980047104
I263406760
tp1359
a(I263406760
I263406758
tp1360
a(I263406758
I4468934318
tp1361
a(I1428542693
I263110790
tp1362
a(I263109819
I4172183997
tp1363
a(I263109826
I263109827
tp1364
a(I263109827
I4465408204
tp1365
a(I263360159
I263360180
tp1366
a(I263360180
I263359299
tp1367
a(I263359299
I263359016
tp1368
a(I263359016
I4470495538
tp1369
a(I263390547
I263390434
tp1370
a(I263390434
I263388532
tp1371
a(I309999004
I817655147
tp1372
a(I263390549
I263390548
tp1373
a(I263390548
I263390547
tp1374
a(I263390547
I3104396889
tp1375
a(I263390545
I263390543
tp1376
a(I263390543
I263390542
tp1377
a(I263390542
I263390310
tp1378
a(I263390310
I4341742017
tp1379
a(I4341742017
I2060102900
tp1380
a(I263109794
I1428455558
tp1381
a(I1428455558
I263110814
tp1382
a(I263384503
I263384504
tp1383
a(I263384504
I263384694
tp1384
a(I263384694
I263384506
tp1385
a(I263384506
I263384508
tp1386
a(I263384508
I263377507
tp1387
a(I263377507
I263110071
tp1388
a(I4333022372
I2060102856
tp1389
a(I4333022372
I2489449873
tp1390
a(I2060102856
I2060102857
tp1391
a(I263109818
I263109819
tp1392
a(I817654731
I2053915562
tp1393
a(I2053915562
I819211390
tp1394
a(I819211390
I915282248
tp1395
a(I915282248
I817654725
tp1396
a(I817654731
I817654861
tp1397
a(I817654861
I817654869
tp1398
a(I817654869
I1943099023
tp1399
a(I1943099023
I1943098964
tp1400
a(I1943098964
I263401823
tp1401
a(I263389397
I263388538
tp1402
a(I263389397
I263389398
tp1403
a(I4483083378
I2064693873
tp1404
a(I263110800
I1841915494
tp1405
a(I1841915494
I263109809
tp1406
a(I263109809
I263360159
tp1407
a(I263109809
I263109810
tp1408
a(I316809596
I316803098
tp1409
a(I316803100
I674944534
tp1410
a(I674944534
I799340905
tp1411
a(I4334194813
I263403171
tp1412
a(I263403171
I4325766737
tp1413
a(I263112180
I4214554097
tp1414
a(I263114458
I263113049
tp1415
a(I263114458
I4214554074
tp1416
a(I316803518
I4569365810
tp1417
a(I799341011
I874898576
tp1418
a(I874898576
I874898585
tp1419
a(I874898585
I874898538
tp1420
a(I874898538
I4143760944
tp1421
a(I316803526
I2055554045
tp1422
a(I1273450296
I874898563
tp1423
a(I874898563
I4511049201
tp1424
a(I874949876
I670387035
tp1425
a(I670387035
I2055554062
tp1426
a(I670366831
I874898756
tp1427
a(I874898756
I874867389
tp1428
a(I874867389
I2055554051
tp1429
a(I874867439
I874898978
tp1430
a(I874898978
I874898902
tp1431
a(I874898902
I2054187128
tp1432
a(I2054187128
I316803311
tp1433
a(I316803311
I874898938
tp1434
a(I874898938
I874898847
tp1435
a(I874898847
I2054187126
tp1436
a(I3335028877
I1943098932
tp1437
a(I1943098993
I2022120386
tp1438
a(I2022120386
I1943098873
tp1439
a(I263396644
I263397031
tp1440
a(I1399076796
I1273815536
tp1441
a(I1273815536
I1273843638
tp1442
a(I1273843638
I1273649834
tp1443
a(I1273649834
I1273940189
tp1444
a(I1273940189
I1273737580
tp1445
a(I1399076844
I1399076843
tp1446
a(I1399076843
I1399076840
tp1447
a(I1399076840
I1273716599
tp1448
a(I1273716599
I2057539190
tp1449
a(I4346353695
I263360418
tp1450
a(I263360418
I4470495548
tp1451
a(I263358426
I263358427
tp1452
a(I263358427
I263358428
tp1453
a(I263358428
I263358429
tp1454
a(I263122134
I1273716085
tp1455
a(I1273716085
I263122135
tp1456
a(I263122135
I263122137
tp1457
a(I263122137
I263122138
tp1458
a(I638356992
I638356998
tp1459
a(I638356998
I638359123
tp1460
a(I638359123
I378301302
tp1461
a(I378301302
I1273589372
tp1462
a(I1273589372
I660657170
tp1463
a(I660657170
I1273918843
tp1464
a(I1273918843
I674939489
tp1465
a(I674939489
I674939563
tp1466
a(I674939563
I2057539236
tp1467
a(I1273786286
I2055741654
tp1468
a(I263110815
I1428455547
tp1469
a(I1428455547
I263109793
tp1470
a(I263110815
I2064693928
tp1471
a(I263122086
I4578573746
tp1472
a(I263388545
I263403102
tp1473
a(I263388545
I3022713079
tp1474
a(I263388541
I4466988008
tp1475
a(I263388539
I263388538
tp1476
a(I263388535
I263388534
tp1477
a(I263388534
I263388533
tp1478
a(I263388533
I263388532
tp1479
a(I263390549
I263390436
tp1480
a(I263390436
I263388535
tp1481
a(I263388535
I263389394
tp1482
a(I263389394
I2068555267
tp1483
a(I2068555267
I263396343
tp1484
a(I263396343
I1943098903
tp1485
a(I316803105
I3335028877
tp1486
a(I3335028877
I3611960953
tp1487
a(I3611960953
I263393294
tp1488
a(I316803105
I2055741689
tp1489
a(I2055741689
I874949097
tp1490
a(I874949097
I674944812
tp1491
a(I674944812
I874949172
tp1492
a(I874949172
I2057539437
tp1493
a(I2057539437
I874949459
tp1494
a(I874949459
I874949698
tp1495
a(I874949698
I3992453074
tp1496
a(I263400735
I1273850923
tp1497
a(I1273850923
I263401591
tp1498
a(I1943098903
I1943098961
tp1499
a(I1943098961
I1943098964
tp1500
a(I1943098964
I1943098944
tp1501
a(I1943098944
I1943098876
tp1502
a(I1943098876
I4334141386
tp1503
a(I4334194813
I4333022372
tp1504
a(I1943098903
I1943098920
tp1505
a(I1943098920
I1399076796
tp1506
a(I819211052
I819211101
tp1507
a(I819211101
I1355562709
tp1508
a(I819211052
I819211064
tp1509
a(I819211064
I819211075
tp1510
a(I819211075
I2053915465
tp1511
a(I2053915465
I819211116
tp1512
a(I819211116
I817654731
tp1513
a(I819211075
I1273969597
tp1514
a(I1273969597
I819211080
tp1515
a(I819211080
I528023636
tp1516
a(I263388532
I263389392
tp1517
a(I263389392
I263392919
tp1518
a(I263392919
I1943098949
tp1519
a(I1943098949
I1943098906
tp1520
a(I1943098906
I309999004
tp1521
a(I2060102857
I819211297
tp1522
a(I819211297
I528023636
tp1523
a(I528023636
I819211122
tp1524
a(I819211122
I817654869
tp1525
a(I817654869
I817655012
tp1526
a(I817655012
I817654996
tp1527
a(I817654996
I1399076796
tp1528
a(I2840596721
I4241328889
tp1529
a(I263390064
I263390027
tp1530
a(I263390027
I2840596718
tp1531
a(I874898665
I1273485456
tp1532
a(I874898694
I874898534
tp1533
a(I874898534
I874898618
tp1534
a(I874898618
I4569354773
tp1535
a(I4332896004
I2053915529
tp1536
a(I1399063249
I1273673158
tp1537
a(I1273673158
I817654852
tp1538
a(I817654852
I817654923
tp1539
a(I263388538
I263390440
tp1540
a(I263390440
I263395072
tp1541
a(I263395072
I2064693682
tp1542
a(I263388538
I263388537
tp1543
a(I263388537
I1273819464
tp1544
a(I1273819464
I263388536
tp1545
a(I263388536
I263388535
tp1546
a(I263400735
I263388536
tp1547
a(I263388536
I263390438
tp1548
a(I263390438
I263390892
tp1549
a(I263110787
I263110788
tp1550
a(I263110787
I1428542703
tp1551
a(I1428542703
I263109823
tp1552
a(I263109823
I4468934271
tp1553
a(I799340905
I316803102
tp1554
a(I316803102
I1273900542
tp1555
a(I1273900542
I799373836
tp1556
a(I799373836
I4574299388
tp1557
a(I799340926
I799341096
tp1558
a(I799341096
I799340794
tp1559
a(I799340794
I2055741323
tp1560
a(I799373776
I799341103
tp1561
a(I817654838
I2055741356
tp1562
a(I817654725
I1399076831
tp1563
a(I1399076831
I4333955243
tp1564
a(I817654996
I1943099004
tp1565
a(I1943099004
I1943098961
tp1566
a(I1943098961
I263400734
tp1567
a(I263109774
I4542277499
tp1568
a(I263109775
I4172199596
tp1569
a(I263109776
I263109777
tp1570
a(I263389384
I263389385
tp1571
a(I263389385
I263389386
tp1572
a(I263389386
I263389387
tp1573
a(I263389387
I263389388
tp1574
a(I263389388
I263389389
tp1575
a(I263389389
I263389390
tp1576
a(I263389390
I263389391
tp1577
a(I263389384
I1273705635
tp1578
a(I1273705635
I263389741
tp1579
a(I1943099042
I1943098993
tp1580
a(I687485067
I687485097
tp1581
a(I687485097
I4333981474
tp1582
a(I4333981474
I1273820269
tp1583
a(I1273820269
I316803777
tp1584
a(I1856595169
I4333022372
tp1585
a(I1856595169
I4325766752
tp1586
a(I1334721342
I1856595156
tp1587
a(I1856595156
I4334170920
tp1588
a(I1355562709
I819211246
tp1589
a(I1355562709
I817654835
tp1590
a(I817654835
I817654731
tp1591
a(I263110070
I1273677739
tp1592
a(I1273677739
I4139686842
tp1593
a(I2793008241
I1273942557
tp1594
a(I263384565
I263384566
tp1595
a(I263387630
I263389687
tp1596
a(I263394495
I3992446483
tp1597
a(I263392068
I263392368
tp1598
a(I263392368
I2489449876
tp1599
a(I3104396894
I263392066
tp1600
a(I263392066
I263389388
tp1601
a(I263389388
I263390313
tp1602
a(I263390313
I263394495
tp1603
a(I263394495
I1943098870
tp1604
a(I1943098870
I2057539436
tp1605
a(I2057539436
I2057539437
tp1606
a(I263388532
I263388531
tp1607
a(I263388531
I263388530
tp1608
a(I263388530
I3104396894
tp1609
a(I3104396894
I263388528
tp1610
a(I263110790
I263110792
tp1611
a(I263110792
I2064693799
tp1612
a(I263110796
I2064693824
tp1613
a(I263394502
I263394501
tp1614
a(I263394501
I263394500
tp1615
a(I263394500
I263394499
tp1616
a(I263394499
I263394497
tp1617
a(I263394497
I263391186
tp1618
a(I263391186
I3104396886
tp1619
a(I263110796
I263110797
tp1620
a(I263110797
I263110798
tp1621
a(I263110798
I263110799
tp1622
a(I263110796
I1428455574
tp1623
a(I1428455574
I263109813
tp1624
a(I263384497
I3854554751
tp1625
a(I263384501
I263384502
tp1626
a(I263384502
I263384503
tp1627
a(I263111599
I263111043
tp1628
a(I263111043
I263111697
tp1629
a(I263111697
I263112017
tp1630
a(I263111697
I263111699
tp1631
a(I2060102871
I3669613448
tp1632
a(I263110800
I4483083378
tp1633
a(I1428542698
I2064693252
tp1634
a(I2064693699
I263401590
tp1635
a(I263389679
I263389742
tp1636
a(I2022120386
I1943099038
tp1637
a(I1943099038
I263389679
tp1638
a(I263389679
I263389680
tp1639
a(I2060102918
I263388521
tp1640
a(I263388521
I2060102941
tp1641
a(I263389742
I1273687988
tp1642
a(I263389984
I3992446479
tp1643
a(I263392366
I4482936083
tp1644
a(I2068555330
I263389390
tp1645
a(I263389390
I263392368
tp1646
a(I3104396886
I4482936020
tp1647
a(I263393292
I263390432
tp1648
a(I263390432
I263392366
tp1649
a(I263392366
I3104396894
tp1650
a(I263387779
I263388518
tp1651
a(I263388518
I2489449869
tp1652
a(I263388341
I4334041330
tp1653
a(I263387779
I4143584334
tp1654
a(I4143584334
I1943098881
tp1655
a(I1943098881
I503687605
tp1656
a(I2055741713
I4143584348
tp1657
a(I1943098997
I1943098890
tp1658
a(I263112748
I263112747
tp1659
a(I263112747
I263112610
tp1660
a(I263112610
I4148021789
tp1661
a(I4148021789
I4148021790
tp1662
a(I263114100
I263112859
tp1663
a(I263112859
I263112858
tp1664
a(I263112858
I263112857
tp1665
a(I263112857
I263112609
tp1666
a(I263112609
I4607191988
tp1667
a(I263111595
I263108225
tp1668
a(I263111596
I263112174
tp1669
a(I263112174
I263112013
tp1670
a(I263112013
I263112175
tp1671
a(I263108226
I263111596
tp1672
a(I4148021791
I4148021792
tp1673
a(I4148021792
I263111592
tp1674
a(I1426686871
I263111592
tp1675
a(I1873952210
I2062508520
tp1676
a(I1873952210
I1873952216
tp1677
a(I263109776
I263111854
tp1678
a(I263388236
I263388235
tp1679
a(I263388229
I2068555544
tp1680
a(I263384499
I263384803
tp1681
a(I263384803
I263384802
tp1682
a(I263384802
I263384801
tp1683
a(I263384801
I263384791
tp1684
a(I263384803
I263386811
tp1685
a(I1273969597
I1273856652
tp1686
a(I799341069
I799373805
tp1687
a(I263394500
I263395066
tp1688
a(I263395066
I3992423401
tp1689
a(I1273801848
I1273705635
tp1690
a(I263110798
I263397928
tp1691
a(I263398006
I263110797
tp1692
a(I638354740
I638354695
tp1693
a(I638354695
I874949097
tp1694
a(I874898582
I874898537
tp1695
a(I874898537
I316803303
tp1696
a(I316803303
I670402129
tp1697
a(I670402129
I670402128
tp1698
a(I874898538
I874898537
tp1699
a(I874898537
I874898536
tp1700
a(I874898536
I874898535
tp1701
a(I638353818
I638353813
tp1702
a(I874949434
I874949438
tp1703
a(I2429826787
I2057539421
tp1704
a(I2057539426
I674943246
tp1705
a(I2429826786
I874949793
tp1706
a(I874949793
I2057539412
tp1707
a(I2057539412
I660657176
tp1708
a(I660657176
I1273870210
tp1709
a(I2055741704
I874949404
tp1710
a(I2055741699
I378301236
tp1711
a(I378301236
I674944115
tp1712
a(I638359762
I674943374
tp1713
a(I799341011
I799341015
tp1714
a(I799341015
I4511043460
tp1715
a(I639085596
I638346165
tp1716
a(I638346165
I503693084
tp1717
a(I503693084
I2058517295
tp1718
a(I2058517295
I638350661
tp1719
a(I638350661
I4580606770
tp1720
a(I638351099
I2058517311
tp1721
a(I2058517311
I638352372
tp1722
a(I638352372
I638351764
tp1723
a(I638351764
I638346885
tp1724
a(I638346885
I632697040
tp1725
a(I632697040
I638346894
tp1726
a(I638346894
I638346232
tp1727
a(I674939489
I674941940
tp1728
a(I674939563
I674939564
tp1729
a(I674939564
I870805468
tp1730
a(I638354695
I874949022
tp1731
a(I874949022
I674944810
tp1732
a(I674944810
I874949179
tp1733
a(I874949179
I874949461
tp1734
a(I874949461
I874949696
tp1735
a(I874949696
I638354694
tp1736
a(I638354694
I2055741706
tp1737
a(I2055741706
I3992462826
tp1738
a(I263388528
I263388527
tp1739
a(I263388527
I263388526
tp1740
a(I263388526
I263388525
tp1741
a(I263388525
I263388246
tp1742
a(I263388246
I263388523
tp1743
a(I263388523
I263388522
tp1744
a(I263388522
I263388521
tp1745
a(I263109827
I263407470
tp1746
a(I263401591
I263389397
tp1747
a(I263390438
I263390439
tp1748
a(I263390439
I263390440
tp1749
a(I263390440
I263390441
tp1750
a(I263390441
I4466988002
tp1751
a(I263403101
I263403102
tp1752
a(I263388521
I263388339
tp1753
a(I263388339
I263388741
tp1754
a(I263388741
I263388113
tp1755
a(I263388113
I263388520
tp1756
a(I4326403381
I4326403387
tp1757
a(I263358751
I4347808479
tp1758
a(I263108227
I263111597
tp1759
a(I263111597
I263112014
tp1760
a(I263112015
I263112271
tp1761
a(I819211388
I817654835
tp1762
a(I817654835
I819211109
tp1763
a(I2053915529
I1273651148
tp1764
a(I1273824171
I1273902867
tp1765
a(I1273902867
I1399063223
tp1766
a(I799341153
I2053915552
tp1767
a(I2053915552
I4569354788
tp1768
a(I674939565
I674940587
tp1769
a(I674940587
I670402125
tp1770
a(I670402125
I4511043609
tp1771
a(I2055741330
I817654838
tp1772
a(I799340920
I799340986
tp1773
a(I4334049666
I4143584338
tp1774
a(I1943099042
I2055741702
tp1775
a(I1943098870
I1943098891
tp1776
a(I1943098949
I1943098903
tp1777
a(I4334079533
I1943098986
tp1778
a(I263110792
I1428542683
tp1779
a(I1428542683
I263109818
tp1780
a(I263109818
I4468934305
tp1781
a(I263406377
I263406378
tp1782
a(I263406378
I263406379
tp1783
a(I263406379
I263360296
tp1784
a(I263360296
I263358758
tp1785
a(I263110790
I4120129892
tp1786
a(I263395861
I263395862
tp1787
a(I263395862
I2064693699
tp1788
a(I2064693699
I263395863
tp1789
a(I263390442
I4191078078
tp1790
a(I263403102
I2064693294
tp1791
a(I263403102
I2062508487
tp1792
a(I263111221
I2209660425
tp1793
a(I4337702008
I263109777
tp1794
a(I2793008249
I2793008243
tp1795
a(I2793008249
I4337698819
tp1796
a(I4337698819
I4337702008
tp1797
a(I4337702008
I4337703574
tp1798
a(I263112271
I263112272
tp1799
a(I263111221
I263112183
tp1800
a(I263112183
I263122086
tp1801
a(I263122086
I263122087
tp1802
a(I263122087
I263122088
tp1803
a(I263122088
I263122089
tp1804
a(I263122089
I263122090
tp1805
a(I263122090
I1639104067
tp1806
a(I1639104067
I263122091
tp1807
a(I263122091
I1273895001
tp1808
a(I1273895001
I263122092
tp1809
a(I263122092
I263122093
tp1810
a(I263122093
I263122094
tp1811
a(I263122094
I263122095
tp1812
a(I263122095
I263122097
tp1813
a(I263122097
I263122098
tp1814
a(I263122098
I263122099
tp1815
a(I263122099
I263122100
tp1816
a(I263122145
I263357765
tp1817
a(I263357765
I263357991
tp1818
a(I263357765
I263357766
tp1819
a(I263357766
I263357767
tp1820
a(I263357767
I263357768
tp1821
a(I263357768
I263357770
tp1822
a(I263360423
I263109810
tp1823
a(I263109810
I1428455552
tp1824
a(I1428455552
I263110799
tp1825
a(I4341700933
I263391582
tp1826
a(I263391582
I263391505
tp1827
a(I263391505
I263392527
tp1828
a(I638359170
I638361010
tp1829
a(I638361010
I638359192
tp1830
a(I638359192
I2057539427
tp1831
a(I674941938
I660657174
tp1832
a(I660657174
I2057539367
tp1833
a(I674941945
I2057539306
tp1834
a(I2057539306
I2057539254
tp1835
a(I2057539254
I674941948
tp1836
a(I674941948
I2057539227
tp1837
a(I263389688
I263390121
tp1838
a(I4341742017
I263390428
tp1839
a(I263390428
I263388525
tp1840
a(I262729964
I263377505
tp1841
a(I263377505
I263377506
tp1842
a(I263377506
I263377507
tp1843
a(I263384503
I263384644
tp1844
a(I263384644
I263384646
tp1845
a(I2068555206
I263403097
tp1846
a(I4325705243
I4325705245
tp1847
a(I4325705243
I2209617982
tp1848
a(I263388544
I263389400
tp1849
a(I263389400
I3023663224
tp1850
a(I263388235
I263388234
tp1851
a(I263388234
I263388108
tp1852
a(I263392527
I2064693851
tp1853
a(I263391185
I3104396886
tp1854
a(I263395374
I263395375
tp1855
a(I263395375
I263397840
tp1856
a(I263397840
I263395376
tp1857
a(I263395376
I3976118631
tp1858
a(I263397840
I263397841
tp1859
a(I263406377
I263394506
tp1860
a(I263394506
I263404831
tp1861
a(I263406760
I263406377
tp1862
a(I263406762
I263406379
tp1863
a(I263406379
I263408038
tp1864
a(I263408038
I263404834
tp1865
a(I263397838
I4554136045
tp1866
a(I263406378
I2980047104
tp1867
a(I2980047104
I2990049733
tp1868
a(I263407802
I263407803
tp1869
a(I263407803
I4345048825
tp1870
a(I263403103
I263403104
tp1871
a(I263357989
I263357767
tp1872
a(I263357767
I263360133
tp1873
a(I263360133
I263122147
tp1874
a(I263121292
I263121419
tp1875
a(I263121419
I263121089
tp1876
a(I263121089
I263114458
tp1877
a(I263392527
I263393290
tp1878
a(I263393290
I263393289
tp1879
a(I263393289
I4483083378
tp1880
a(I263388245
I263390428
tp1881
a(I263390428
I263390312
tp1882
a(I263390312
I263390429
tp1883
a(I263390429
I263390430
tp1884
a(I263390430
I263390431
tp1885
a(I263390431
I3992441915
tp1886
a(I263390433
I4482831300
tp1887
a(I2055741710
I3093028779
tp1888
a(I503687605
I4334049665
tp1889
a(I632697086
I632692724
tp1890
a(I2055741710
I2022120386
tp1891
a(I263384613
I263384726
tp1892
a(I4465408204
I4465408198
tp1893
a(I4465408205
I4465408198
tp1894
a(I4465408198
I1428542724
tp1895
a(I1428542698
I3743408006
tp1896
a(I4465408204
I4465407750
tp1897
a(I3743408006
I308131653
tp1898
a(I4465408200
I2064693678
tp1899
a(I263110785
I4468933851
tp1900
a(I4465408197
I4465408208
tp1901
a(I1428542706
I1428542722
tp1902
a(I1428542706
I263110784
tp1903
a(I263110784
I263399305
tp1904
a(I263399305
I4467032420
tp1905
a(I263400353
I263395073
tp1906
a(I263395073
I3022731908
tp1907
a(I263388539
I263389398
tp1908
a(I4467032444
I4467032445
tp1909
a(I4468934271
I4468934272
tp1910
a(I4468934272
I263400738
tp1911
a(I263400738
I263400739
tp1912
a(I674943375
I874949392
tp1913
a(I874949392
I874949696
tp1914
a(I874949696
I874949438
tp1915
a(I874949438
I874949698
tp1916
a(I4483083379
I263360505
tp1917
a(I263360505
I263109809
tp1918
a(I331597590
I2058517469
tp1919
a(I263112175
I263112176
tp1920
a(I263112176
I263112177
tp1921
a(I263112177
I263112178
tp1922
a(I263112181
I263112182
tp1923
a.