(lp0
(dp1
S'id'
p2
I4337698819
sS'coordinates'
p3
(lp4
F-12.0880546
aF-77.0507123
asa(dp5
g2
I263397380
sg3
(lp6
F-12.0754842
aF-77.0439545
asa(dp7
g2
I4326404105
sg3
(lp8
F-12.0696332
aF-77.0367853
asa(dp9
g2
I874949293
sg3
(lp10
F-12.0741905
aF-77.0558257
asa(dp11
g2
I316803089
sg3
(lp12
F-12.0709119
aF-77.0757414
asa(dp13
g2
I316803090
sg3
(lp14
F-12.0716789
aF-77.0722837
asa(dp15
g2
I316803092
sg3
(lp16
F-12.0722013
aF-77.0694503
asa(dp17
g2
I1273964565
sg3
(lp18
F-12.0772214
aF-77.0627848
asa(dp19
g2
I316803097
sg3
(lp20
F-12.0716307
aF-77.0617144
asa(dp21
g2
I2059583515
sg3
(lp22
F-12.0755462
aF-77.0652855
asa(dp23
g2
I316803100
sg3
(lp24
F-12.0717582
aF-77.0595989
asa(dp25
g2
I316803102
sg3
(lp26
F-12.0722105
aF-77.0579809
asa(dp27
g2
I316803105
sg3
(lp28
F-12.0750978
aF-77.0539645
asa(dp29
g2
I1273489450
sg3
(lp30
F-12.0719475
aF-77.0530146
asa(dp31
g2
I263112747
sg3
(lp32
F-12.0905718
aF-77.044371
asa(dp33
g2
I263112748
sg3
(lp34
F-12.089644
aF-77.0445025
asa(dp35
g2
I638353467
sg3
(lp36
F-12.0805142
aF-77.0627819
asa(dp37
g2
I263391293
sg3
(lp38
F-12.0801171
aF-77.0486878
asa(dp39
g2
I2974698167
sg3
(lp40
F-12.0892923
aF-77.0401127
asa(dp41
g2
I528023636
sg3
(lp42
F-12.0671546
aF-77.0474066
asa(dp43
g2
I1273728170
sg3
(lp44
F-12.0735772
aF-77.0599794
asa(dp45
g2
I1273667679
sg3
(lp46
F-12.0746259
aF-77.0490717
asa(dp47
g2
I819211281
sg3
(lp48
F-12.0616699
aF-77.0528944
asa(dp49
g2
I263381110
sg3
(lp50
F-12.0936659
aF-77.0658736
asa(dp51
g2
I263381111
sg3
(lp52
F-12.0934792
aF-77.0660971
asa(dp53
g2
I2054187128
sg3
(lp54
F-12.0712034
aF-77.0739827
asa(dp55
g2
I2054187130
sg3
(lp56
F-12.0715972
aF-77.0726811
asa(dp57
g2
I1428455547
sg3
(lp58
F-12.0826073
aF-77.0458773
asa(dp59
g2
I263110782
sg3
(lp60
F-12.0708032
aF-77.0407416
asa(dp61
g2
I2059583509
sg3
(lp62
F-12.0754883
aF-77.0677558
asa(dp63
g2
I263110784
sg3
(lp64
F-12.0720796
aF-77.0413344
asa(dp65
g2
I263110785
sg3
(lp66
F-12.0727595
aF-77.041624
asa(dp67
g2
I263110787
sg3
(lp68
F-12.0738196
aF-77.0420388
asa(dp69
g2
I263110790
sg3
(lp70
F-12.0750641
aF-77.0422005
asa(dp71
g2
I263110792
sg3
(lp72
F-12.075206
aF-77.0422178
asa(dp73
g2
I263110796
sg3
(lp74
F-12.07652
aF-77.0423169
asa(dp75
g2
I263110797
sg3
(lp76
F-12.0775986
aF-77.0423565
asa(dp77
g2
I263110798
sg3
(lp78
F-12.0790313
aF-77.0423748
asa(dp79
g2
I263110799
sg3
(lp80
F-12.0795727
aF-77.042389
asa(dp81
g2
I263110800
sg3
(lp82
F-12.0796949
aF-77.0424008
asa(dp83
g2
I1428455574
sg3
(lp84
F-12.0765411
aF-77.0421958
asa(dp85
g2
I2054187159
sg3
(lp86
F-12.0732721
aF-77.0760217
asa(dp87
g2
I263112857
sg3
(lp88
F-12.0907267
aF-77.045495
asa(dp89
g2
I263112858
sg3
(lp90
F-12.0897904
aF-77.0456323
asa(dp91
g2
I263112859
sg3
(lp92
F-12.0888703
aF-77.0457618
asa(dp93
g2
I263110814
sg3
(lp94
F-12.0823587
aF-77.0457081
asa(dp95
g2
I263110815
sg3
(lp96
F-12.0825245
aF-77.0459475
asa(dp97
g2
I263110816
sg3
(lp98
F-12.0850487
aF-77.0488055
asa(dp99
g2
I2054187170
sg3
(lp100
F-12.07419
aF-77.0728376
asa(dp101
g2
I2055741603
sg3
(lp102
F-12.0716926
aF-77.0554221
asa(dp103
g2
I263358643
sg3
(lp104
F-12.0801649
aF-77.0385857
asa(dp105
g2
I263121078
sg3
(lp106
F-12.0858292
aF-77.035437
asa(dp107
g2
I263121079
sg3
(lp108
F-12.0859453
aF-77.0362879
asa(dp109
g2
I263121080
sg3
(lp110
F-12.0860617
aF-77.0370997
asa(dp111
g2
I263121081
sg3
(lp112
F-12.0861732
aF-77.0379153
asa(dp113
g2
I263407802
sg3
(lp114
F-12.0734348
aF-77.0395525
asa(dp115
g2
I263121083
sg3
(lp116
F-12.0864267
aF-77.0396169
asa(dp117
g2
I263407804
sg3
(lp118
F-12.0724139
aF-77.0393941
asa(dp119
g2
I263121085
sg3
(lp120
F-12.0866461
aF-77.0413034
asa(dp121
g2
I263121086
sg3
(lp122
F-12.0867565
aF-77.0421199
asa(dp123
g2
I263121087
sg3
(lp124
F-12.0868732
aF-77.0429221
asa(dp125
g2
I263121088
sg3
(lp126
F-12.0869861
aF-77.043752
asa(dp127
g2
I263399617
sg3
(lp128
F-12.0738201
aF-77.0434644
asa(dp129
g2
I263399619
sg3
(lp130
F-12.0715954
aF-77.0434502
asa(dp131
g2
I263399620
sg3
(lp132
F-12.0709769
aF-77.0434869
asa(dp133
g2
I263389383
sg3
(lp134
F-12.0814776
aF-77.0573102
asa(dp135
g2
I263389384
sg3
(lp136
F-12.0814136
aF-77.0572592
asa(dp137
g2
I263389385
sg3
(lp138
F-12.0806292
aF-77.0566195
asa(dp139
g2
I263389386
sg3
(lp140
F-12.0798445
aF-77.0559769
asa(dp141
g2
I263389387
sg3
(lp142
F-12.0788796
aF-77.0551465
asa(dp143
g2
I263389388
sg3
(lp144
F-12.0783368
aF-77.0547109
asa(dp145
g2
I263389389
sg3
(lp146
F-12.0778769
aF-77.0543531
asa(dp147
g2
I263389390
sg3
(lp148
F-12.0769123
aF-77.0535523
asa(dp149
g2
I263389391
sg3
(lp150
F-12.075929
aF-77.052745
asa(dp151
g2
I263389392
sg3
(lp152
F-12.0749363
aF-77.0519232
asa(dp153
g2
I263389393
sg3
(lp154
F-12.0739505
aF-77.0511095
asa(dp155
g2
I263389394
sg3
(lp156
F-12.0729606
aF-77.0502868
asa(dp157
g2
I263389397
sg3
(lp158
F-12.0700163
aF-77.0478732
asa(dp159
g2
I263389398
sg3
(lp160
F-12.0690451
aF-77.0470644
asa(dp161
g2
I263389399
sg3
(lp162
F-12.0680519
aF-77.046255
asa(dp163
g2
I263389400
sg3
(lp164
F-12.06707
aF-77.0454484
asa(dp165
g2
I263389401
sg3
(lp166
F-12.0660863
aF-77.0446374
asa(dp167
g2
I263389402
sg3
(lp168
F-12.065726
aF-77.0443304
asa(dp169
g2
I316803291
sg3
(lp170
F-12.0726703
aF-77.0568329
asa(dp171
g2
I316803293
sg3
(lp172
F-12.0720957
aF-77.0579333
asa(dp173
g2
I316803295
sg3
(lp174
F-12.0717462
aF-77.05903
asa(dp175
g2
I2055741666
sg3
(lp176
F-12.0748418
aF-77.0559576
asa(dp177
g2
I316803299
sg3
(lp178
F-12.0715062
aF-77.0603782
asa(dp179
g2
I2055741669
sg3
(lp180
F-12.0749826
aF-77.0554273
asa(dp181
g2
I670386406
sg3
(lp182
F-12.0755237
aF-77.066852
asa(dp183
g2
I316803303
sg3
(lp184
F-12.0717014
aF-77.0625117
asa(dp185
g2
I4467032444
sg3
(lp186
F-12.0717413
aF-77.0394474
asa(dp187
g2
I316803307
sg3
(lp188
F-12.0723411
aF-77.0673758
asa(dp189
g2
I316803311
sg3
(lp190
F-12.071142
aF-77.0742699
asa(dp191
g2
I263397621
sg3
(lp192
F-12.0754874
aF-77.043464
asa(dp193
g2
I263397622
sg3
(lp194
F-12.075484
aF-77.0429698
asa(dp195
g2
I2055741688
sg3
(lp196
F-12.0756049
aF-77.0551984
asa(dp197
g2
I263397625
sg3
(lp198
F-12.075232
aF-77.0427323
asa(dp199
g2
I263397626
sg3
(lp200
F-12.0751072
aF-77.0427279
asa(dp201
g2
I263397629
sg3
(lp202
F-12.0748318
aF-77.0429788
asa(dp203
g2
I263112958
sg3
(lp204
F-12.088662
aF-77.04437
asa(dp205
g2
I263397631
sg3
(lp206
F-12.0748316
aF-77.043956
asa(dp207
g2
I263397632
sg3
(lp208
F-12.0748675
aF-77.0440372
asa(dp209
g2
I1273790722
sg3
(lp210
F-12.0620313
aF-77.041225
asa(dp211
g2
I1273850923
sg3
(lp212
F-12.0715693
aF-77.0491355
asa(dp213
g2
I2055741703
sg3
(lp214
F-12.0792839
aF-77.0600499
asa(dp215
g2
I2055741704
sg3
(lp216
F-12.0795946
aF-77.0596514
asa(dp217
g2
I2055741706
sg3
(lp218
F-12.0799036
aF-77.0592678
asa(dp219
g2
I2055741708
sg3
(lp220
F-12.0802305
aF-77.0588691
asa(dp221
g2
I2055741710
sg3
(lp222
F-12.0805526
aF-77.0584665
asa(dp223
g2
I263391504
sg3
(lp224
F-12.081141
aF-77.0476114
asa(dp225
g2
I263391505
sg3
(lp226
F-12.0793683
aF-77.0476132
asa(dp227
g2
I263111043
sg3
(lp228
F-12.0924858
aF-77.0509948
asa(dp229
g2
I670362670
sg3
(lp230
F-12.0734806
aF-77.0702416
asa(dp231
g2
I638353688
sg3
(lp232
F-12.0804532
aF-77.0609965
asa(dp233
g2
I263358749
sg3
(lp234
F-12.0676417
aF-77.0381713
asa(dp235
g2
I263358751
sg3
(lp236
F-12.0697952
aF-77.0378449
asa(dp237
g2
I263383329
sg3
(lp238
F-12.093538
aF-77.0593982
asa(dp239
g2
I263358754
sg3
(lp240
F-12.0725637
aF-77.037415
asa(dp241
g2
I263358755
sg3
(lp242
F-12.0735965
aF-77.0372555
asa(dp243
g2
I263358757
sg3
(lp244
F-12.0746282
aF-77.0371016
asa(dp245
g2
I263358758
sg3
(lp246
F-12.0747114
aF-77.0370907
asa(dp247
g2
I263358760
sg3
(lp248
F-12.0757374
aF-77.0369437
asa(dp249
g2
I1273815536
sg3
(lp250
F-12.0712615
aF-77.0524343
asa(dp251
g2
I263110989
sg3
(lp252
F-12.0938086
aF-77.0518806
asa(dp253
g2
I263110990
sg3
(lp254
F-12.0934247
aF-77.0525025
asa(dp255
g2
I263113044
sg3
(lp256
F-12.0895016
aF-77.0417321
asa(dp257
g2
I799373653
sg3
(lp258
F-12.0712674
aF-77.0571499
asa(dp259
g2
I263113049
sg3
(lp260
F-12.0877902
aF-77.0444922
asa(dp261
g2
I799340891
sg3
(lp262
F-12.0699811
aF-77.0551068
asa(dp263
g2
I263391580
sg3
(lp264
F-12.0811219
aF-77.0477593
asa(dp265
g2
I263391581
sg3
(lp266
F-12.0802362
aF-77.0477582
asa(dp267
g2
I263391582
sg3
(lp268
F-12.0793608
aF-77.0476898
asa(dp269
g2
I874948983
sg3
(lp270
F-12.0749865
aF-77.0559948
asa(dp271
g2
I316809593
sg3
(lp272
F-12.0728393
aF-77.0620202
asa(dp273
g2
I874948986
sg3
(lp274
F-12.0748716
aF-77.0565692
asa(dp275
g2
I316809596
sg3
(lp276
F-12.0716186
aF-77.0615154
asa(dp277
g2
I4467032445
sg3
(lp278
F-12.0716672
aF-77.0389459
asa(dp279
g2
I874948990
sg3
(lp280
F-12.074764
aF-77.0571035
asa(dp281
g2
I263121282
sg3
(lp282
F-12.0849104
aF-77.0364287
asa(dp283
g2
I263121283
sg3
(lp284
F-12.085028
aF-77.037249
asa(dp285
g2
I263121284
sg3
(lp286
F-12.0851365
aF-77.0380612
asa(dp287
g2
I263121285
sg3
(lp288
F-12.0852446
aF-77.0388592
asa(dp289
g2
I263121286
sg3
(lp290
F-12.0853657
aF-77.039762
asa(dp291
g2
I263121287
sg3
(lp292
F-12.0854917
aF-77.0406429
asa(dp293
g2
I263121288
sg3
(lp294
F-12.0856049
aF-77.0414595
asa(dp295
g2
I263121289
sg3
(lp296
F-12.0857241
aF-77.0422767
asa(dp297
g2
I263121290
sg3
(lp298
F-12.0858273
aF-77.0430876
asa(dp299
g2
I263121291
sg3
(lp300
F-12.0859365
aF-77.0439026
asa(dp301
g2
I263121292
sg3
(lp302
F-12.0860656
aF-77.0447449
asa(dp303
g2
I263121293
sg3
(lp304
F-12.086251
aF-77.046111
asa(dp305
g2
I3992308111
sg3
(lp306
F-12.079944
aF-77.0394574
asa(dp307
g2
I638353810
sg3
(lp308
F-12.0809948
aF-77.0602168
asa(dp309
g2
I874949014
sg3
(lp310
F-12.075496
aF-77.0582081
asa(dp311
g2
I1273733528
sg3
(lp312
F-12.0763161
aF-77.0648227
asa(dp313
g2
I638353818
sg3
(lp314
F-12.0807046
aF-77.0599168
asa(dp315
g2
I874949020
sg3
(lp316
F-12.076178
aF-77.0574752
asa(dp317
g2
I874949022
sg3
(lp318
F-12.0767922
aF-77.056706
asa(dp319
g2
I263408038
sg3
(lp320
F-12.0760713
aF-77.0392113
asa(dp321
g2
I263408039
sg3
(lp322
F-12.0735218
aF-77.0389361
asa(dp323
g2
I874949034
sg3
(lp324
F-12.0740751
aF-77.0589849
asa(dp325
g2
I1273790891
sg3
(lp326
F-12.0645175
aF-77.0402169
asa(dp327
g2
I2062508468
sg3
(lp328
F-12.0625051
aF-77.0416144
asa(dp329
g2
I503687605
sg3
(lp330
F-12.0843799
aF-77.0616277
asa(dp331
g2
I2062508470
sg3
(lp332
F-12.0633842
aF-77.0405059
asa(dp333
g2
I874898847
sg3
(lp334
F-12.0709026
aF-77.0753337
asa(dp335
g2
I316803518
sg3
(lp336
F-12.0681746
aF-77.0614048
asa(dp337
g2
I874949057
sg3
(lp338
F-12.0749123
aF-77.0586375
asa(dp339
g2
I2062508482
sg3
(lp340
F-12.065633
aF-77.0431745
asa(dp341
g2
I874949059
sg3
(lp342
F-12.0754123
aF-77.0587028
asa(dp343
g2
I316803526
sg3
(lp344
F-12.0715299
aF-77.0616895
asa(dp345
g2
I316803527
sg3
(lp346
F-12.0715145
aF-77.0615057
asa(dp347
g2
I263383496
sg3
(lp348
F-12.0933667
aF-77.0592184
asa(dp349
g2
I1273570380
sg3
(lp350
F-12.0660029
aF-77.059129
asa(dp351
g2
I263397838
sg3
(lp352
F-12.0789513
aF-77.044373
asa(dp353
g2
I263397839
sg3
(lp354
F-12.0779226
aF-77.044422
asa(dp355
g2
I263397840
sg3
(lp356
F-12.0763025
aF-77.0444685
asa(dp357
g2
I263397841
sg3
(lp358
F-12.0760734
aF-77.0444663
asa(dp359
g2
I1273743827
sg3
(lp360
F-12.0704612
aF-77.0526099
asa(dp361
g2
I2062508500
sg3
(lp362
F-12.0675588
aF-77.0430249
asa(dp363
g2
I874949079
sg3
(lp364
F-12.0753927
aF-77.057723
asa(dp365
g2
I874949083
sg3
(lp366
F-12.0755368
aF-77.0572795
asa(dp367
g2
I1273504223
sg3
(lp368
F-12.0751343
aF-77.0586759
asa(dp369
g2
I263391716
sg3
(lp370
F-12.0812197
aF-77.0457751
asa(dp371
g2
I874949097
sg3
(lp372
F-12.0769758
aF-77.0555083
asa(dp373
g2
I263113198
sg3
(lp374
F-12.0901861
aF-77.0416224
asa(dp375
g2
I263389679
sg3
(lp376
F-12.080689
aF-77.058302
asa(dp377
g2
I263113200
sg3
(lp378
F-12.0900782
aF-77.0408027
asa(dp379
g2
I263113201
sg3
(lp380
F-12.089965
aF-77.0400027
asa(dp381
g2
I263113202
sg3
(lp382
F-12.0897028
aF-77.0382051
asa(dp383
g2
I263358963
sg3
(lp384
F-12.0873037
aF-77.0385571
asa(dp385
g2
I263113204
sg3
(lp386
F-12.0894741
aF-77.0366056
asa(dp387
g2
I263113205
sg3
(lp388
F-12.0893627
aF-77.0357941
asa(dp389
g2
I263113206
sg3
(lp390
F-12.0892459
aF-77.0349297
asa(dp391
g2
I263389687
sg3
(lp392
F-12.0831883
aF-77.0521074
asa(dp393
g2
I263389688
sg3
(lp394
F-12.0826054
aF-77.0505981
asa(dp395
g2
I263389689
sg3
(lp396
F-12.0822705
aF-77.0497112
asa(dp397
g2
I263389691
sg3
(lp398
F-12.0820081
aF-77.0487862
asa(dp399
g2
I263389694
sg3
(lp400
F-12.0819759
aF-77.0477825
asa(dp401
g2
I263389695
sg3
(lp402
F-12.0819909
aF-77.0476145
asa(dp403
g2
I1273825022
sg3
(lp404
F-12.0666934
aF-77.0550176
asa(dp405
g2
I263383554
sg3
(lp406
F-12.0933449
aF-77.0593553
asa(dp407
g2
I874949128
sg3
(lp408
F-12.0748813
aF-77.0576355
asa(dp409
g2
I263121418
sg3
(lp410
F-12.0869937
aF-77.0460114
asa(dp411
g2
I263121419
sg3
(lp412
F-12.0868064
aF-77.0446359
asa(dp413
g2
I263395860
sg3
(lp414
F-12.0751843
aF-77.0468979
asa(dp415
g2
I3743408663
sg3
(lp416
F-12.1027233
aF-77.0581291
asa(dp417
g2
I263389723
sg3
(lp418
F-12.08227
aF-77.0459041
asa(dp419
g2
I4148021789
sg3
(lp420
F-12.0920842
aF-77.044156
asa(dp421
g2
I263389726
sg3
(lp422
F-12.0818661
aF-77.0476105
asa(dp423
g2
I263389727
sg3
(lp424
F-12.0818512
aF-77.0477614
asa(dp425
g2
I4148021792
sg3
(lp426
F-12.0902963
aF-77.042423
asa(dp427
g2
I263389729
sg3
(lp428
F-12.0818756
aF-77.0487808
asa(dp429
g2
I263389731
sg3
(lp430
F-12.0821184
aF-77.0496814
asa(dp431
g2
I263389732
sg3
(lp432
F-12.0824734
aF-77.0506015
asa(dp433
g2
I263389733
sg3
(lp434
F-12.0830692
aF-77.0521648
asa(dp435
g2
I263359016
sg3
(lp436
F-12.0800287
aF-77.0396183
asa(dp437
g2
I263359018
sg3
(lp438
F-12.0802973
aF-77.0395852
asa(dp439
g2
I263111211
sg3
(lp440
F-12.0925648
aF-77.0475459
asa(dp441
g2
I263111212
sg3
(lp442
F-12.091528
aF-77.047682
asa(dp443
g2
I263111214
sg3
(lp444
F-12.0895497
aF-77.0479781
asa(dp445
g2
I263111215
sg3
(lp446
F-12.0882915
aF-77.0481592
asa(dp447
g2
I263111216
sg3
(lp448
F-12.0881743
aF-77.0481805
asa(dp449
g2
I819210802
sg3
(lp450
F-12.0619569
aF-77.0515926
asa(dp451
g2
I263111220
sg3
(lp452
F-12.0865779
aF-77.0484169
asa(dp453
g2
I263111221
sg3
(lp454
F-12.0854927
aF-77.0485846
asa(dp455
g2
I874949179
sg3
(lp456
F-12.0777711
aF-77.0575225
asa(dp457
g2
I874949182
sg3
(lp458
F-12.0771817
aF-77.0582797
asa(dp459
g2
I1399063106
sg3
(lp460
F-12.0624501
aF-77.058421
asa(dp461
g2
I263383619
sg3
(lp462
F-12.0934724
aF-77.0597724
asa(dp463
g2
I874949201
sg3
(lp464
F-12.0766464
aF-77.0578644
asa(dp465
g2
I263359070
sg3
(lp466
F-12.0875572
aF-77.0403464
asa(dp467
g2
I263359071
sg3
(lp468
F-12.0876707
aF-77.0411497
asa(dp469
g2
I674939489
sg3
(lp470
F-12.0738204
aF-77.0625695
asa(dp471
g2
I263390432
sg3
(lp472
F-12.0779196
aF-77.0517817
asa(dp473
g2
I2086871325
sg3
(lp474
F-12.0878917
aF-77.042761
asa(dp475
g2
I263398006
sg3
(lp476
F-12.077761
aF-77.0434085
asa(dp477
g2
I819210877
sg3
(lp478
F-12.0616882
aF-77.052168
asa(dp479
g2
I1273479807
sg3
(lp480
F-12.0646864
aF-77.041499
asa(dp481
g2
I670361366
sg3
(lp482
F-12.0733604
aF-77.0707801
asa(dp483
g2
I1273856652
sg3
(lp484
F-12.0662471
aF-77.049329
asa(dp485
g2
I1273899667
sg3
(lp486
F-12.064587
aF-77.0578101
asa(dp487
g2
I874949274
sg3
(lp488
F-12.0739847
aF-77.0574312
asa(dp489
g2
I1273840285
sg3
(lp490
F-12.0894599
aF-77.0473985
asa(dp491
g2
I874949283
sg3
(lp492
F-12.0740873
aF-77.0569639
asa(dp493
g2
I263113382
sg3
(lp494
F-12.0931572
aF-77.0403515
asa(dp495
g2
I1399063324
sg3
(lp496
F-12.0657251
aF-77.0582351
asa(dp497
g2
I1273547434
sg3
(lp498
F-12.0718283
aF-77.0546099
asa(dp499
g2
I674939563
sg3
(lp500
F-12.073696
aF-77.0625021
asa(dp501
g2
I674939564
sg3
(lp502
F-12.0736339
aF-77.062554
asa(dp503
g2
I674939565
sg3
(lp504
F-12.0721399
aF-77.0640316
asa(dp505
g2
I1399063215
sg3
(lp506
F-12.0628852
aF-77.0565543
asa(dp507
g2
I1399063217
sg3
(lp508
F-12.0633756
aF-77.0553488
asa(dp509
g2
I1273875123
sg3
(lp510
F-12.0634976
aF-77.0424305
asa(dp511
g2
I2974698164
sg3
(lp512
F-12.0893805
aF-77.0409048
asa(dp513
g2
I2974698166
sg3
(lp514
F-12.0895433
aF-77.0420047
asa(dp515
g2
I263111351
sg3
(lp516
F-12.0892183
aF-77.0392159
asa(dp517
g2
I263111352
sg3
(lp518
F-12.0898309
aF-77.0391145
asa(dp519
g2
I2053915321
sg3
(lp520
F-12.0618628
aF-77.0517133
asa(dp521
g2
I2068555267
sg3
(lp522
F-12.0724887
aF-77.0508901
asa(dp523
g2
I874867389
sg3
(lp524
F-12.0720178
aF-77.0701139
asa(dp525
g2
I263408320
sg3
(lp526
F-12.0736218
aF-77.0382017
asa(dp527
g2
I2054187126
sg3
(lp528
F-12.0708335
aF-77.0756855
asa(dp529
g2
I819210950
sg3
(lp530
F-12.0632553
aF-77.0465988
asa(dp531
g2
I1273750305
sg3
(lp532
F-12.0653069
aF-77.059708
asa(dp533
g2
I263383752
sg3
(lp534
F-12.0933057
aF-77.0607873
asa(dp535
g2
I874949321
sg3
(lp536
F-12.0736134
aF-77.0568571
asa(dp537
g2
I819210954
sg3
(lp538
F-12.063859
aF-77.0463327
asa(dp539
g2
I2054187127
sg3
(lp540
F-12.0709215
aF-77.0757005
asa(dp541
g2
I819210958
sg3
(lp542
F-12.0646554
aF-77.0453381
asa(dp543
g2
I1399063249
sg3
(lp544
F-12.0635698
aF-77.0531458
asa(dp545
g2
I263389907
sg3
(lp546
F-12.0818047
aF-77.0552614
asa(dp547
g2
I1399063255
sg3
(lp548
F-12.0634639
aF-77.0567942
asa(dp549
g2
I1399063257
sg3
(lp550
F-12.0639419
aF-77.0555895
asa(dp551
g2
I1399063262
sg3
(lp552
F-12.063874
aF-77.0569667
asa(dp553
g2
I1399063266
sg3
(lp554
F-12.0645046
aF-77.057219
asa(dp555
g2
I1399063272
sg3
(lp556
F-12.0648475
aF-77.0584681
asa(dp557
g2
I874898556
sg3
(lp558
F-12.0698273
aF-77.0637242
asa(dp559
g2
I1399063278
sg3
(lp560
F-12.0655652
aF-77.0587311
asa(dp561
g2
I874867439
sg3
(lp562
F-12.0716486
aF-77.0719307
asa(dp563
g2
I819210992
sg3
(lp564
F-12.0627362
aF-77.0437682
asa(dp565
g2
I2055741661
sg3
(lp566
F-12.0736281
aF-77.0544013
asa(dp567
g2
I670370552
sg3
(lp568
F-12.0736995
aF-77.0684279
asa(dp569
g2
I1428455552
sg3
(lp570
F-12.0795627
aF-77.0422772
asa(dp571
g2
I1399063300
sg3
(lp572
F-12.0639512
aF-77.0594092
asa(dp573
g2
I1273457452
sg3
(lp574
F-12.0659394
aF-77.0570912
asa(dp575
g2
I2055553804
sg3
(lp576
F-12.0675122
aF-77.0628902
asa(dp577
g2
I2055553805
sg3
(lp578
F-12.0675423
aF-77.0637913
asa(dp579
g2
I2055553806
sg3
(lp580
F-12.0675956
aF-77.0656644
asa(dp581
g2
I874949392
sg3
(lp582
F-12.0787607
aF-77.0589443
asa(dp583
g2
I2055553809
sg3
(lp584
F-12.0677123
aF-77.065668
asa(dp585
g2
I1273890947
sg3
(lp586
F-12.0644279
aF-77.0422819
asa(dp587
g2
I1399063317
sg3
(lp588
F-12.0643312
aF-77.0591213
asa(dp589
g2
I874949399
sg3
(lp590
F-12.0795437
aF-77.0596106
asa(dp591
g2
I1399063322
sg3
(lp592
F-12.0653139
aF-77.0578864
asa(dp593
g2
I874949404
sg3
(lp594
F-12.0803991
aF-77.0602937
asa(dp595
g2
I1836204830
sg3
(lp596
F-12.067786
aF-77.0737454
asa(dp597
g2
I263389984
sg3
(lp598
F-12.0790522
aF-77.0569608
asa(dp599
g2
I638356257
sg3
(lp600
F-12.0813423
aF-77.0591176
asa(dp601
g2
I1399063331
sg3
(lp602
F-12.0656414
aF-77.0574872
asa(dp603
g2
I1428455558
sg3
(lp604
F-12.0824609
aF-77.0456377
asa(dp605
g2
I263406376
sg3
(lp606
F-12.0751821
aF-77.0417102
asa(dp607
g2
I263406377
sg3
(lp608
F-12.0751399
aF-77.040735
asa(dp609
g2
I263406378
sg3
(lp610
F-12.075077
aF-77.0397865
asa(dp611
g2
I263406379
sg3
(lp612
F-12.0750128
aF-77.0391544
asa(dp613
g2
I819211052
sg3
(lp614
F-12.0637426
aF-77.051548
asa(dp615
g2
I2055741663
sg3
(lp616
F-12.0738383
aF-77.0545755
asa(dp617
g2
I378301236
sg3
(lp618
F-12.0786708
aF-77.0607245
asa(dp619
g2
I263390005
sg3
(lp620
F-12.0868889
aF-77.050271
asa(dp621
g2
I874949431
sg3
(lp622
F-12.081021
aF-77.0595214
asa(dp623
g2
I819211064
sg3
(lp624
F-12.0645492
aF-77.0505874
asa(dp625
g2
I874949434
sg3
(lp626
F-12.0801717
aF-77.0588187
asa(dp627
g2
I263392061
sg3
(lp628
F-12.0811596
aF-77.0468417
asa(dp629
g2
I874949438
sg3
(lp630
F-12.0793761
aF-77.0581719
asa(dp631
g2
I4332972863
sg3
(lp632
F-12.0647602
aF-77.0394188
asa(dp633
g2
I4332972865
sg3
(lp634
F-12.0648097
aF-77.0390468
asa(dp635
g2
I263359298
sg3
(lp636
F-12.0804045
aF-77.0403955
asa(dp637
g2
I263359299
sg3
(lp638
F-12.0798986
aF-77.0404702
asa(dp639
g2
I263392068
sg3
(lp640
F-12.0770951
aF-77.0553572
asa(dp641
g2
I819211080
sg3
(lp642
F-12.0663401
aF-77.0483864
asa(dp643
g2
I2053915465
sg3
(lp644
F-12.0657846
aF-77.0499317
asa(dp645
g2
I263390027
sg3
(lp646
F-12.085315
aF-77.0509588
asa(dp647
g2
I3335028877
sg3
(lp648
F-12.0751005
aF-77.0538721
asa(dp649
g2
I874949459
sg3
(lp650
F-12.0790212
aF-77.0571891
asa(dp651
g2
I874949461
sg3
(lp652
F-12.0783643
aF-77.0580112
asa(dp653
g2
I4325766721
sg3
(lp654
F-12.0649844
aF-77.0435792
asa(dp655
g2
I819211095
sg3
(lp656
F-12.0640753
aF-77.0532148
asa(dp657
g2
I670387032
sg3
(lp658
F-12.0724506
aF-77.0665088
asa(dp659
g2
I874949465
sg3
(lp660
F-12.0777815
aF-77.0587673
asa(dp661
g2
I670387035
sg3
(lp662
F-12.0723482
aF-77.0665131
asa(dp663
g2
I819211101
sg3
(lp664
F-12.0647394
aF-77.0523994
asa(dp665
g2
I1399063392
sg3
(lp666
F-12.0668105
aF-77.0597953
asa(dp667
g2
I263390052
sg3
(lp668
F-12.0822285
aF-77.0525164
asa(dp669
g2
I819211109
sg3
(lp670
F-12.0655496
aF-77.0514277
asa(dp671
g2
I263390054
sg3
(lp672
F-12.0818774
aF-77.0524395
asa(dp673
g2
I874898577
sg3
(lp674
F-12.0699491
aF-77.0623616
asa(dp675
g2
I263390056
sg3
(lp676
F-12.0813513
aF-77.0520619
asa(dp677
g2
I1399063402
sg3
(lp678
F-12.0649291
aF-77.0561685
asa(dp679
g2
I819211116
sg3
(lp680
F-12.0663687
aF-77.0504289
asa(dp681
g2
I1399063357
sg3
(lp682
F-12.0660306
aF-77.0568945
asa(dp683
g2
I263390064
sg3
(lp684
F-12.0852956
aF-77.0507387
asa(dp685
g2
I819211122
sg3
(lp686
F-12.068136
aF-77.048209
asa(dp687
g2
I660661108
sg3
(lp688
F-12.0739817
aF-77.0735598
asa(dp689
g2
I4332972862
sg3
(lp690
F-12.0644996
aF-77.0393484
asa(dp691
g2
I378301302
sg3
(lp692
F-12.0772521
aF-77.0645098
asa(dp693
g2
I1273469940
sg3
(lp694
F-12.0695645
aF-77.0504907
asa(dp695
g2
I1396409219
sg3
(lp696
F-12.0648852
aF-77.0574817
asa(dp697
g2
I1396409220
sg3
(lp698
F-12.0643778
aF-77.0581767
asa(dp699
g2
I1396409221
sg3
(lp700
F-12.063802
aF-77.0598664
asa(dp701
g2
I1273621384
sg3
(lp702
F-12.091602
aF-77.0624
asa(dp703
g2
I2053915529
sg3
(lp704
F-12.0666233
aF-77.0561488
asa(dp705
g2
I263392066
sg3
(lp706
F-12.0782242
aF-77.0539381
asa(dp707
g2
I660661135
sg3
(lp708
F-12.0736881
aF-77.0745486
asa(dp709
g2
I819211075
sg3
(lp710
F-12.0653726
aF-77.0495811
asa(dp711
g2
I1426686871
sg3
(lp712
F-12.0933988
aF-77.0419605
asa(dp713
g2
I1273963417
sg3
(lp714
F-12.0651847
aF-77.055549
asa(dp715
g2
I1273504670
sg3
(lp716
F-12.0706528
aF-77.0523671
asa(dp717
g2
I263111584
sg3
(lp718
F-12.0907619
aF-77.0347129
asa(dp719
g2
I263400353
sg3
(lp720
F-12.0715104
aF-77.0439532
asa(dp721
g2
I263111586
sg3
(lp722
F-12.0910024
aF-77.0363658
asa(dp723
g2
I263111587
sg3
(lp724
F-12.0911211
aF-77.0371766
asa(dp725
g2
I263111588
sg3
(lp726
F-12.0912178
aF-77.0379828
asa(dp727
g2
I263111589
sg3
(lp728
F-12.0914779
aF-77.0397666
asa(dp729
g2
I263111590
sg3
(lp730
F-12.0915815
aF-77.0405743
asa(dp731
g2
I263111591
sg3
(lp732
F-12.0916949
aF-77.0413825
asa(dp733
g2
I263111592
sg3
(lp734
F-12.0918115
aF-77.0422132
asa(dp735
g2
I263111593
sg3
(lp736
F-12.0919267
aF-77.0430243
asa(dp737
g2
I2053915562
sg3
(lp738
F-12.0677282
aF-77.0515809
asa(dp739
g2
I263111595
sg3
(lp740
F-12.0922433
aF-77.0452901
asa(dp741
g2
I263390124
sg3
(lp742
F-12.0809512
aF-77.0503465
asa(dp743
g2
I263111597
sg3
(lp744
F-12.0927238
aF-77.0486626
asa(dp745
g2
I263111598
sg3
(lp746
F-12.092902
aF-77.0497935
asa(dp747
g2
I263111599
sg3
(lp748
F-12.0930733
aF-77.0509173
asa(dp749
g2
I638346165
sg3
(lp750
F-12.0802747
aF-77.0660165
asa(dp751
g2
I263112181
sg3
(lp752
F-12.0871489
aF-77.0471695
asa(dp753
g2
I817654725
sg3
(lp754
F-12.0692854
aF-77.0528827
asa(dp755
g2
I874949793
sg3
(lp756
F-12.0757085
aF-77.0604385
asa(dp757
g2
I817654731
sg3
(lp758
F-12.067333
aF-77.051237
asa(dp759
g2
I819211214
sg3
(lp760
F-12.0653517
aF-77.0475653
asa(dp761
g2
I263359439
sg3
(lp762
F-12.0861739
aF-77.0455979
asa(dp763
g2
I819211216
sg3
(lp764
F-12.0643961
aF-77.0467821
asa(dp765
g2
I316802006
sg3
(lp766
F-12.0681974
aF-77.061185
asa(dp767
g2
I316802009
sg3
(lp768
F-12.0679409
aF-77.0606576
asa(dp769
g2
I316802011
sg3
(lp770
F-12.0674868
aF-77.0604885
asa(dp771
g2
I316802016
sg3
(lp772
F-12.0667859
aF-77.0610632
asa(dp773
g2
I107774945
sg3
(lp774
F-12.0607195
aF-77.0418043
asa(dp775
g2
I263122086
sg3
(lp776
F-12.0851707
aF-77.0462488
asa(dp777
g2
I316802024
sg3
(lp778
F-12.0678925
aF-77.0618181
asa(dp779
g2
I819211246
sg3
(lp780
F-12.0666933
aF-77.0540292
asa(dp781
g2
I263122088
sg3
(lp782
F-12.0849982
aF-77.0449052
asa(dp783
g2
I674941938
sg3
(lp784
F-12.0766837
aF-77.0625765
asa(dp785
g2
I819211251
sg3
(lp786
F-12.0627034
aF-77.0506865
asa(dp787
g2
I263390196
sg3
(lp788
F-12.0836848
aF-77.0497739
asa(dp789
g2
I263390197
sg3
(lp790
F-12.0837546
aF-77.0488736
asa(dp791
g2
I638346231
sg3
(lp792
F-12.0806882
aF-77.0641557
asa(dp793
g2
I638346232
sg3
(lp794
F-12.0833709
aF-77.0607851
asa(dp795
g2
I674941945
sg3
(lp796
F-12.0742116
aF-77.0620185
asa(dp797
g2
I674941948
sg3
(lp798
F-12.0728791
aF-77.0617646
asa(dp799
g2
I263122090
sg3
(lp800
F-12.0847598
aF-77.0432398
asa(dp801
g2
I263384064
sg3
(lp802
F-12.0937058
aF-77.0622049
asa(dp803
g2
I263384065
sg3
(lp804
F-12.0929579
aF-77.0620233
asa(dp805
g2
I263384067
sg3
(lp806
F-12.0927549
aF-77.0619689
asa(dp807
g2
I874898610
sg3
(lp808
F-12.0684102
aF-77.062963
asa(dp809
g2
I1399063383
sg3
(lp810
F-12.065919
aF-77.0594005
asa(dp811
g2
I263111853
sg3
(lp812
F-12.0919946
aF-77.05159
asa(dp813
g2
I263111697
sg3
(lp814
F-12.0920224
aF-77.0510879
asa(dp815
g2
I263111699
sg3
(lp816
F-12.0913477
aF-77.0511849
asa(dp817
g2
I263111854
sg3
(lp818
F-12.0898452
aF-77.0504167
asa(dp819
g2
I819211286
sg3
(lp820
F-12.0616701
aF-77.0527926
asa(dp821
g2
I1399063385
sg3
(lp822
F-12.066092
aF-77.0588549
asa(dp823
g2
I819211288
sg3
(lp824
F-12.061706
aF-77.0520743
asa(dp825
g2
I263111855
sg3
(lp826
F-12.0885066
aF-77.0497434
asa(dp827
g2
I639085596
sg3
(lp828
F-12.0802467
aF-77.0660846
asa(dp829
g2
I819211293
sg3
(lp830
F-12.0635186
aF-77.0497231
asa(dp831
g2
I819211295
sg3
(lp832
F-12.0643753
aF-77.0487386
asa(dp833
g2
I819211297
sg3
(lp834
F-12.0661593
aF-77.0465669
asa(dp835
g2
I2060102918
sg3
(lp836
F-12.0817891
aF-77.0569165
asa(dp837
g2
I638363143
sg3
(lp838
F-12.0790544
aF-77.061736
asa(dp839
g2
I263390253
sg3
(lp840
F-12.0810866
aF-77.0487474
asa(dp841
g2
I263390254
sg3
(lp842
F-12.0852326
aF-77.0498534
asa(dp843
g2
I819211313
sg3
(lp844
F-12.0634415
aF-77.0479411
asa(dp845
g2
I791159858
sg3
(lp846
F-12.0672653
aF-77.0472578
asa(dp847
g2
I817654835
sg3
(lp848
F-12.0665186
aF-77.0522306
asa(dp849
g2
I817654838
sg3
(lp850
F-12.0685405
aF-77.0539524
asa(dp851
g2
I874949812
sg3
(lp852
F-12.074136
aF-77.0601001
asa(dp853
g2
I874898613
sg3
(lp854
F-12.068231
aF-77.0649334
asa(dp855
g2
I874949696
sg3
(lp856
F-12.0790569
aF-77.0585707
asa(dp857
g2
I874949698
sg3
(lp858
F-12.079711
aF-77.0577603
asa(dp859
g2
I1273750595
sg3
(lp860
F-12.0728885
aF-77.0589211
asa(dp861
g2
I817654852
sg3
(lp862
F-12.0653042
aF-77.0536705
asa(dp863
g2
I817654860
sg3
(lp864
F-12.0653916
aF-77.0535993
asa(dp865
g2
I817654861
sg3
(lp866
F-12.0683115
aF-77.0500182
asa(dp867
g2
I1273900115
sg3
(lp868
F-12.0701646
aF-77.0533273
asa(dp869
g2
I817654869
sg3
(lp870
F-12.0691224
aF-77.0490232
asa(dp871
g2
I263382107
sg3
(lp872
F-12.0956916
aF-77.0579553
asa(dp873
g2
I263382108
sg3
(lp874
F-12.0952843
aF-77.0577747
asa(dp875
g2
I263382110
sg3
(lp876
F-12.0951467
aF-77.0577192
asa(dp877
g2
I263382111
sg3
(lp878
F-12.0947452
aF-77.0575231
asa(dp879
g2
I263390307
sg3
(lp880
F-12.0824992
aF-77.0506717
asa(dp881
g2
I874898532
sg3
(lp882
F-12.0689948
aF-77.0639114
asa(dp883
g2
I874898533
sg3
(lp884
F-12.0683282
aF-77.0638525
asa(dp885
g2
I263390310
sg3
(lp886
F-12.0807314
aF-77.0528464
asa(dp887
g2
I874898535
sg3
(lp888
F-12.0708627
aF-77.0651747
asa(dp889
g2
I263390312
sg3
(lp890
F-12.0801021
aF-77.0536247
asa(dp891
g2
I263390313
sg3
(lp892
F-12.0784695
aF-77.055674
asa(dp893
g2
I263390314
sg3
(lp894
F-12.0780721
aF-77.0561539
asa(dp895
g2
I263388269
sg3
(lp896
F-12.0871633
aF-77.0573772
asa(dp897
g2
I263392366
sg3
(lp898
F-12.0779813
aF-77.0521913
asa(dp899
g2
I263392368
sg3
(lp900
F-12.0761043
aF-77.0545486
asa(dp901
g2
I2793008241
sg3
(lp902
F-12.0910256
aF-77.0560886
asa(dp903
g2
I4483083378
sg3
(lp904
F-12.0799667
aF-77.0424467
asa(dp905
g2
I4483083379
sg3
(lp906
F-12.0805585
aF-77.0423653
asa(dp907
g2
I1273801848
sg3
(lp908
F-12.0802539
aF-77.0570778
asa(dp909
g2
I2793008249
sg3
(lp910
F-12.0880825
aF-77.0508511
asa(dp911
g2
I874898555
sg3
(lp912
F-12.0701664
aF-77.0637491
asa(dp913
g2
I819211388
sg3
(lp914
F-12.0674914
aF-77.0530522
asa(dp915
g2
I819211390
sg3
(lp916
F-12.068309
aF-77.052075
asa(dp917
g2
I874898563
sg3
(lp918
F-12.0720479
aF-77.0641911
asa(dp919
g2
I1273465991
sg3
(lp920
F-12.0702254
aF-77.0537983
asa(dp921
g2
I874949775
sg3
(lp922
F-12.0744747
aF-77.0607002
asa(dp923
g2
I874898576
sg3
(lp924
F-12.070025
aF-77.0615408
asa(dp925
g2
I263109777
sg3
(lp926
F-12.0880953
aF-77.0506103
asa(dp927
g2
I874949781
sg3
(lp928
F-12.0731464
aF-77.0604162
asa(dp929
g2
I874898582
sg3
(lp930
F-12.0702947
aF-77.0623821
asa(dp931
g2
I263392407
sg3
(lp932
F-12.0805065
aF-77.0510715
asa(dp933
g2
I874898585
sg3
(lp934
F-12.070372
aF-77.0615736
asa(dp935
g2
I874898591
sg3
(lp936
F-12.0691373
aF-77.0622852
asa(dp937
g2
I819211120
sg3
(lp938
F-12.0673406
aF-77.049204
asa(dp939
g2
I874898594
sg3
(lp940
F-12.0684822
aF-77.0622293
asa(dp941
g2
I4333022372
sg3
(lp942
F-12.065271
aF-77.0456642
asa(dp943
g2
I817654982
sg3
(lp944
F-12.0702867
aF-77.051632
asa(dp945
g2
I263406758
sg3
(lp946
F-12.0750382
aF-77.041733
asa(dp947
g2
I263122087
sg3
(lp948
F-12.0851097
aF-77.0457564
asa(dp949
g2
I263406760
sg3
(lp950
F-12.0749876
aF-77.0407469
asa(dp951
g2
I263122089
sg3
(lp952
F-12.0848787
aF-77.044053
asa(dp953
g2
I263406762
sg3
(lp954
F-12.0749097
aF-77.0391373
asa(dp955
g2
I263122091
sg3
(lp956
F-12.0846478
aF-77.0424217
asa(dp957
g2
I263122092
sg3
(lp958
F-12.0845409
aF-77.0416163
asa(dp959
g2
I263122093
sg3
(lp960
F-12.0844198
aF-77.0407968
asa(dp961
g2
I263122094
sg3
(lp962
F-12.0843009
aF-77.0399133
asa(dp963
g2
I263122095
sg3
(lp964
F-12.0841758
aF-77.0390161
asa(dp965
g2
I874949808
sg3
(lp966
F-12.0745736
aF-77.0601998
asa(dp967
g2
I263122097
sg3
(lp968
F-12.0840589
aF-77.0382269
asa(dp969
g2
I263122098
sg3
(lp970
F-12.0839465
aF-77.0374051
asa(dp971
g2
I263122099
sg3
(lp972
F-12.0838437
aF-77.0365894
asa(dp973
g2
I263122100
sg3
(lp974
F-12.0837275
aF-77.0357449
asa(dp975
g2
I263388341
sg3
(lp976
F-12.0816313
aF-77.0590893
asa(dp977
g2
I874949815
sg3
(lp978
F-12.0732485
aF-77.0599091
asa(dp979
g2
I874898618
sg3
(lp980
F-12.0676456
aF-77.0628918
asa(dp981
g2
I4148021791
sg3
(lp982
F-12.0896124
aF-77.0425134
asa(dp983
g2
I874949825
sg3
(lp984
F-12.0743184
aF-77.0591864
asa(dp985
g2
I263392454
sg3
(lp986
F-12.0795246
aF-77.050253
asa(dp987
g2
I2060102856
sg3
(lp988
F-12.0652902
aF-77.0457639
asa(dp989
g2
I2060102857
sg3
(lp990
F-12.0653067
aF-77.045874
asa(dp991
g2
I1856595154
sg3
(lp992
F-12.0610747
aF-77.0423976
asa(dp993
g2
I817654996
sg3
(lp994
F-12.0710766
aF-77.0506429
asa(dp995
g2
I263122134
sg3
(lp996
F-12.0839608
aF-77.0380561
asa(dp997
g2
I263122135
sg3
(lp998
F-12.0841037
aF-77.0390266
asa(dp999
g2
I1856595160
sg3
(lp1000
F-12.0632762
aF-77.0437794
asa(dp1001
g2
I263122137
sg3
(lp1002
F-12.0842099
aF-77.0398473
asa(dp1003
g2
I263122138
sg3
(lp1004
F-12.0843141
aF-77.0406248
asa(dp1005
g2
I263122139
sg3
(lp1006
F-12.0844863
aF-77.041832
asa(dp1007
g2
I263390428
sg3
(lp1008
F-12.0805901
aF-77.0540321
asa(dp1009
g2
I263122141
sg3
(lp1010
F-12.0845825
aF-77.0426213
asa(dp1011
g2
I263122142
sg3
(lp1012
F-12.0846482
aF-77.0431086
asa(dp1013
g2
I263390431
sg3
(lp1014
F-12.0781531
aF-77.0519663
asa(dp1015
g2
I263122144
sg3
(lp1016
F-12.0847982
aF-77.0441657
asa(dp1017
g2
I263390433
sg3
(lp1018
F-12.0771709
aF-77.0511709
asa(dp1019
g2
I263122146
sg3
(lp1020
F-12.0849542
aF-77.0452403
asa(dp1021
g2
I263122147
sg3
(lp1022
F-12.0850849
aF-77.046261
asa(dp1023
g2
I263390436
sg3
(lp1024
F-12.0742234
aF-77.048728
asa(dp1025
g2
I263390437
sg3
(lp1026
F-12.0738003
aF-77.0483715
asa(dp1027
g2
I263390438
sg3
(lp1028
F-12.0732404
aF-77.0479193
asa(dp1029
g2
I263390439
sg3
(lp1030
F-12.0722735
aF-77.0471269
asa(dp1031
g2
I263390440
sg3
(lp1032
F-12.0712747
aF-77.046316
asa(dp1033
g2
I263390441
sg3
(lp1034
F-12.0702846
aF-77.045505
asa(dp1035
g2
I263390442
sg3
(lp1036
F-12.0693116
aF-77.0446829
asa(dp1037
g2
I263397928
sg3
(lp1038
F-12.0790007
aF-77.0433291
asa(dp1039
g2
I874898675
sg3
(lp1040
F-12.0700842
aF-77.0673091
asa(dp1041
g2
I874949876
sg3
(lp1042
F-12.0722988
aF-77.0659851
asa(dp1043
g2
I1354755319
sg3
(lp1044
F-12.0707594
aF-77.0591428
asa(dp1045
g2
I1856595156
sg3
(lp1046
F-12.0612541
aF-77.0422408
asa(dp1047
g2
I874898684
sg3
(lp1048
F-12.0688984
aF-77.0649992
asa(dp1049
g2
I874898685
sg3
(lp1050
F-12.0692151
aF-77.0614674
asa(dp1051
g2
I1354755331
sg3
(lp1052
F-12.0734307
aF-77.0589415
asa(dp1053
g2
I1856595158
sg3
(lp1054
F-12.0632169
aF-77.0438543
asa(dp1055
g2
I638354694
sg3
(lp1056
F-12.0798625
aF-77.0592102
asa(dp1057
g2
I638354695
sg3
(lp1058
F-12.0763077
aF-77.0563271
asa(dp1059
g2
I670371081
sg3
(lp1060
F-12.0723373
aF-77.0682752
asa(dp1061
g2
I2060102871
sg3
(lp1062
F-12.0745124
aF-77.0474381
asa(dp1063
g2
I263392527
sg3
(lp1064
F-12.0794634
aF-77.0467722
asa(dp1065
g2
I263389742
sg3
(lp1066
F-12.0806266
aF-77.0582502
asa(dp1067
g2
I316803289
sg3
(lp1068
F-12.0750114
aF-77.0539021
asa(dp1069
g2
I1856595165
sg3
(lp1070
F-12.0644032
aF-77.0413348
asa(dp1071
g2
I638354740
sg3
(lp1072
F-12.0756949
aF-77.0570792
asa(dp1073
g2
I263390430
sg3
(lp1074
F-12.0791256
aF-77.0528001
asa(dp1075
g2
I263357750
sg3
(lp1076
F-12.0841026
aF-77.047437
asa(dp1077
g2
I263357751
sg3
(lp1078
F-12.0825903
aF-77.0359153
asa(dp1079
g2
I263357752
sg3
(lp1080
F-12.0827711
aF-77.0371918
asa(dp1081
g2
I874949172
sg3
(lp1082
F-12.0784098
aF-77.0567052
asa(dp1083
g2
I263122143
sg3
(lp1084
F-12.0847176
aF-77.0436027
asa(dp1085
g2
I263357756
sg3
(lp1086
F-12.0829687
aF-77.0386896
asa(dp1087
g2
I263357757
sg3
(lp1088
F-12.0830492
aF-77.0391814
asa(dp1089
g2
I263357758
sg3
(lp1090
F-12.0831651
aF-77.0399941
asa(dp1091
g2
I263357759
sg3
(lp1092
F-12.0832811
aF-77.0407739
asa(dp1093
g2
I263357760
sg3
(lp1094
F-12.0834344
aF-77.0419995
asa(dp1095
g2
I263357761
sg3
(lp1096
F-12.0835459
aF-77.0427842
asa(dp1097
g2
I263357762
sg3
(lp1098
F-12.0836091
aF-77.0432612
asa(dp1099
g2
I263357763
sg3
(lp1100
F-12.0836736
aF-77.0437475
asa(dp1101
g2
I874898756
sg3
(lp1102
F-12.0720784
aF-77.0696166
asa(dp1103
g2
I263357765
sg3
(lp1104
F-12.0838397
aF-77.0449007
asa(dp1105
g2
I263357766
sg3
(lp1106
F-12.0838999
aF-77.04538
asa(dp1107
g2
I263122145
sg3
(lp1108
F-12.0848862
aF-77.0447319
asa(dp1109
g2
I263357768
sg3
(lp1110
F-12.084052
aF-77.046412
asa(dp1111
g2
I263390434
sg3
(lp1112
F-12.0761863
aF-77.0503527
asa(dp1113
g2
I263390542
sg3
(lp1114
F-12.0797483
aF-77.0520122
asa(dp1115
g2
I263112015
sg3
(lp1116
F-12.0918491
aF-77.0499575
asa(dp1117
g2
I263390545
sg3
(lp1118
F-12.0778158
aF-77.0503909
asa(dp1119
g2
I263390546
sg3
(lp1120
F-12.0777007
aF-77.050289
asa(dp1121
g2
I263390547
sg3
(lp1122
F-12.0768243
aF-77.0495652
asa(dp1123
g2
I263390548
sg3
(lp1124
F-12.0758306
aF-77.0487535
asa(dp1125
g2
I263390549
sg3
(lp1126
F-12.0748541
aF-77.0479398
asa(dp1127
g2
I263390550
sg3
(lp1128
F-12.0744063
aF-77.047587
asa(dp1129
g2
I817655012
sg3
(lp1130
F-12.0700956
aF-77.0498239
asa(dp1131
g2
I1273955676
sg3
(lp1132
F-12.0750593
aF-77.0591492
asa(dp1133
g2
I638346590
sg3
(lp1134
F-12.0827404
aF-77.0636763
asa(dp1135
g2
I817655015
sg3
(lp1136
F-12.070209
aF-77.0496811
asa(dp1137
g2
I874898665
sg3
(lp1138
F-12.0677517
aF-77.0675704
asa(dp1139
g2
I2793008248
sg3
(lp1140
F-12.0911267
aF-77.0559413
asa(dp1141
g2
I1843209607
sg3
(lp1142
F-12.0794358
aF-77.0619262
asa(dp1143
g2
I1843209608
sg3
(lp1144
F-12.0796445
aF-77.0612637
asa(dp1145
g2
I1273959822
sg3
(lp1146
F-12.0816697
aF-77.0638817
asa(dp1147
g2
I638346653
sg3
(lp1148
F-12.0843582
aF-77.0635932
asa(dp1149
g2
I670360991
sg3
(lp1150
F-12.0739174
aF-77.0666805
asa(dp1151
g2
I670360999
sg3
(lp1152
F-12.0746739
aF-77.0710105
asa(dp1153
g2
I263112013
sg3
(lp1154
F-12.0913789
aF-77.0465656
asa(dp1155
g2
I2068555206
sg3
(lp1156
F-12.0687622
aF-77.0444408
asa(dp1157
g2
I263111585
sg3
(lp1158
F-12.0908773
aF-77.0355409
asa(dp1159
g2
I874898902
sg3
(lp1160
F-12.0714184
aF-77.0729599
asa(dp1161
g2
I2055741689
sg3
(lp1162
F-12.0760032
aF-77.0547014
asa(dp1163
g2
I4148021790
sg3
(lp1164
F-12.0936647
aF-77.0439142
asa(dp1165
g2
I4143720017
sg3
(lp1166
F-12.094744
aF-77.0508068
asa(dp1167
g2
I263112174
sg3
(lp1168
F-12.0916644
aF-77.0465235
asa(dp1169
g2
I263112175
sg3
(lp1170
F-12.0908836
aF-77.0466341
asa(dp1171
g2
I263112176
sg3
(lp1172
F-12.0899435
aF-77.0467705
asa(dp1173
g2
I263112177
sg3
(lp1174
F-12.0893858
aF-77.0468501
asa(dp1175
g2
I263112178
sg3
(lp1176
F-12.0890488
aF-77.0468982
asa(dp1177
g2
I263112179
sg3
(lp1178
F-12.0881284
aF-77.0470296
asa(dp1179
g2
I263112180
sg3
(lp1180
F-12.0879973
aF-77.0470487
asa(dp1181
g2
I263397630
sg3
(lp1182
F-12.0748177
aF-77.0434856
asa(dp1183
g2
I263112182
sg3
(lp1184
F-12.0864177
aF-77.0472865
asa(dp1185
g2
I263112183
sg3
(lp1186
F-12.0853145
aF-77.0474281
asa(dp1187
g2
I874898938
sg3
(lp1188
F-12.0710178
aF-77.0748048
asa(dp1189
g2
I2055553808
sg3
(lp1190
F-12.0676586
aF-77.0685238
asa(dp1191
g2
I2980047104
sg3
(lp1192
F-12.0749306
aF-77.0397895
asa(dp1193
g2
I1273677739
sg3
(lp1194
F-12.0921961
aF-77.0543586
asa(dp1195
g2
I263398916
sg3
(lp1196
F-12.072951
aF-77.0448523
asa(dp1197
g2
I638363141
sg3
(lp1198
F-12.0787304
aF-77.0622849
asa(dp1199
g2
I263398919
sg3
(lp1200
F-12.0727146
aF-77.0447383
asa(dp1201
g2
I263398921
sg3
(lp1202
F-12.0724468
aF-77.0447608
asa(dp1203
g2
I638363146
sg3
(lp1204
F-12.0794173
aF-77.0611347
asa(dp1205
g2
I263398925
sg3
(lp1206
F-12.0722512
aF-77.0451406
asa(dp1207
g2
I263398931
sg3
(lp1208
F-12.0727032
aF-77.0453372
asa(dp1209
g2
I4325705243
sg3
(lp1210
F-12.0650641
aF-77.0396548
asa(dp1211
g2
I874898978
sg3
(lp1212
F-12.0715237
aF-77.0724831
asa(dp1213
g2
I263357989
sg3
(lp1214
F-12.0830465
aF-77.0457554
asa(dp1215
g2
I263357991
sg3
(lp1216
F-12.0830784
aF-77.0449946
asa(dp1217
g2
I263357992
sg3
(lp1218
F-12.0831344
aF-77.0437253
asa(dp1219
g2
I263357993
sg3
(lp1220
F-12.0830297
aF-77.0428356
asa(dp1221
g2
I263357995
sg3
(lp1222
F-12.0828942
aF-77.0419759
asa(dp1223
g2
I263357996
sg3
(lp1224
F-12.0825094
aF-77.0408867
asa(dp1225
g2
I263357997
sg3
(lp1226
F-12.082248
aF-77.0401322
asa(dp1227
g2
I263357998
sg3
(lp1228
F-12.0819835
aF-77.0393377
asa(dp1229
g2
I263357999
sg3
(lp1230
F-12.0818293
aF-77.0383532
asa(dp1231
g2
I263358000
sg3
(lp1232
F-12.0817668
aF-77.0378506
asa(dp1233
g2
I263358001
sg3
(lp1234
F-12.0816964
aF-77.0373267
asa(dp1235
g2
I263358002
sg3
(lp1236
F-12.0815213
aF-77.036064
asa(dp1237
g2
I2068555315
sg3
(lp1238
F-12.0762503
aF-77.0523354
asa(dp1239
g2
I2068555316
sg3
(lp1240
F-12.0763663
aF-77.0478935
asa(dp1241
g2
I263406763
sg3
(lp1242
F-12.0748051
aF-77.0383648
asa(dp1243
g2
I4325766718
sg3
(lp1244
F-12.0650683
aF-77.0442045
asa(dp1245
g2
I674939488
sg3
(lp1246
F-12.0737577
aF-77.0626335
asa(dp1247
g2
I2068555330
sg3
(lp1248
F-12.0772243
aF-77.0531485
asa(dp1249
g2
I2068555335
sg3
(lp1250
F-12.0792032
aF-77.048932
asa(dp1251
g2
I670402122
sg3
(lp1252
F-12.0740643
aF-77.0643182
asa(dp1253
g2
I670402123
sg3
(lp1254
F-12.0738663
aF-77.0638317
asa(dp1255
g2
I670402124
sg3
(lp1256
F-12.0736328
aF-77.0634808
asa(dp1257
g2
I670402125
sg3
(lp1258
F-12.0732569
aF-77.0631103
asa(dp1259
g2
I670402126
sg3
(lp1260
F-12.0731519
aF-77.0630188
asa(dp1261
g2
I263112271
sg3
(lp1262
F-12.0898841
aF-77.0502221
asa(dp1263
g2
I263112272
sg3
(lp1264
F-12.0895794
aF-77.0502736
asa(dp1265
g2
I670402129
sg3
(lp1266
F-12.0718104
aF-77.062524
asa(dp1267
g2
I3104396894
sg3
(lp1268
F-12.0781308
aF-77.0532555
asa(dp1269
g2
I1841915494
sg3
(lp1270
F-12.0796838
aF-77.0422899
asa(dp1271
g2
I2055741713
sg3
(lp1272
F-12.0853249
aF-77.062395
asa(dp1273
g2
I1273479443
sg3
(lp1274
F-12.0794626
aF-77.0645622
asa(dp1275
g2
I263407223
sg3
(lp1276
F-12.0742633
aF-77.0418616
asa(dp1277
g2
I3611960953
sg3
(lp1278
F-12.075107
aF-77.0538161
asa(dp1279
g2
I1943099004
sg3
(lp1280
F-12.0711226
aF-77.0505827
asa(dp1281
g2
I4468934271
sg3
(lp1282
F-12.0738256
aF-77.0417171
asa(dp1283
g2
I4468934272
sg3
(lp1284
F-12.0738249
aF-77.0407499
asa(dp1285
g2
I638346882
sg3
(lp1286
F-12.0834167
aF-77.0628256
asa(dp1287
g2
I638346888
sg3
(lp1288
F-12.082036
aF-77.0616812
asa(dp1289
g2
I263112329
sg3
(lp1290
F-12.0897079
aF-77.0490891
asa(dp1291
g2
I638346891
sg3
(lp1292
F-12.082625
aF-77.0609385
asa(dp1293
g2
I638346894
sg3
(lp1294
F-12.0830092
aF-77.0612546
asa(dp1295
g2
I1273702033
sg3
(lp1296
F-12.0738083
aF-77.0605591
asa(dp1297
g2
I638346898
sg3
(lp1298
F-12.0840165
aF-77.0620815
asa(dp1299
g2
I263390882
sg3
(lp1300
F-12.080385
aF-77.0512313
asa(dp1301
g2
I263390883
sg3
(lp1302
F-12.0793891
aF-77.0504058
asa(dp1303
g2
I263390885
sg3
(lp1304
F-12.0784441
aF-77.0495977
asa(dp1305
g2
I263390887
sg3
(lp1306
F-12.0764701
aF-77.0479754
asa(dp1307
g2
I263390889
sg3
(lp1308
F-12.0763383
aF-77.0480139
asa(dp1309
g2
I263390890
sg3
(lp1310
F-12.0751927
aF-77.0476594
asa(dp1311
g2
I674940587
sg3
(lp1312
F-12.0725895
aF-77.0637361
asa(dp1313
g2
I263390892
sg3
(lp1314
F-12.0738117
aF-77.04721
asa(dp1315
g2
I2068555439
sg3
(lp1316
F-12.0822336
aF-77.0583457
asa(dp1317
g2
I263112384
sg3
(lp1318
F-12.0884666
aF-77.0492979
asa(dp1319
g2
I2068555462
sg3
(lp1320
F-12.0830577
aF-77.0592844
asa(dp1321
g2
I2068555469
sg3
(lp1322
F-12.0831834
aF-77.0591283
asa(dp1323
g2
I1273708926
sg3
(lp1324
F-12.0632954
aF-77.057217
asa(dp1325
g2
I1273964255
sg3
(lp1326
F-12.0711069
aF-77.0748706
asa(dp1327
g2
I4326991594
sg3
(lp1328
F-12.0911769
aF-77.0431326
asa(dp1329
g2
I263112658
sg3
(lp1330
F-12.0904265
aF-77.0432505
asa(dp1331
g2
I263382766
sg3
(lp1332
F-12.0956708
aF-77.0569851
asa(dp1333
g2
I263382768
sg3
(lp1334
F-12.0955458
aF-77.0569128
asa(dp1335
g2
I263382769
sg3
(lp1336
F-12.095135
aF-77.0567039
asa(dp1337
g2
I263382770
sg3
(lp1338
F-12.0942082
aF-77.0562048
asa(dp1339
g2
I263395067
sg3
(lp1340
F-12.0762883
aF-77.0460435
asa(dp1341
g2
I263395068
sg3
(lp1342
F-12.0752012
aF-77.0460358
asa(dp1343
g2
I263395070
sg3
(lp1344
F-12.0737945
aF-77.0460222
asa(dp1345
g2
I1273725431
sg3
(lp1346
F-12.0725477
aF-77.0570582
asa(dp1347
g2
I638359170
sg3
(lp1348
F-12.0784692
aF-77.0632111
asa(dp1349
g2
I331597586
sg3
(lp1350
F-12.0874837
aF-77.0617102
asa(dp1351
g2
I1273902867
sg3
(lp1352
F-12.0639853
aF-77.0550282
asa(dp1353
g2
I331597590
sg3
(lp1354
F-12.0857573
aF-77.0641112
asa(dp1355
g2
I670361374
sg3
(lp1356
F-12.0748085
aF-77.0704745
asa(dp1357
g2
I638346885
sg3
(lp1358
F-12.0824005
aF-77.0620065
asa(dp1359
g2
I674944810
sg3
(lp1360
F-12.0773637
aF-77.0571831
asa(dp1361
g2
I817654752
sg3
(lp1362
F-12.0619863
aF-77.0483888
asa(dp1363
g2
I2055741698
sg3
(lp1364
F-12.0786123
aF-77.0608512
asa(dp1365
g2
I316803405
sg3
(lp1366
F-12.0676387
aF-77.0619354
asa(dp1367
g2
I316802021
sg3
(lp1368
F-12.0674555
aF-77.061954
asa(dp1369
g2
I2057539426
sg3
(lp1370
F-12.0775811
aF-77.0617426
asa(dp1371
g2
I263357755
sg3
(lp1372
F-12.0829028
aF-77.0381992
asa(dp1373
g2
I2055741699
sg3
(lp1374
F-12.0787344
aF-77.0607522
asa(dp1375
g2
I263407470
sg3
(lp1376
F-12.0710721
aF-77.0399833
asa(dp1377
g2
I817654760
sg3
(lp1378
F-12.0619514
aF-77.048046
asa(dp1379
g2
I263399303
sg3
(lp1380
F-12.0738191
aF-77.0424744
asa(dp1381
g2
I263399304
sg3
(lp1382
F-12.0727421
aF-77.0419317
asa(dp1383
g2
I263399305
sg3
(lp1384
F-12.0720142
aF-77.0415564
asa(dp1385
g2
I263399306
sg3
(lp1386
F-12.0707665
aF-77.0409089
asa(dp1387
g2
I3335514006
sg3
(lp1388
F-12.0693012
aF-77.0508297
asa(dp1389
g2
I2854447005
sg3
(lp1390
F-12.0879405
aF-77.0425992
asa(dp1391
g2
I4164691870
sg3
(lp1392
F-12.0707797
aF-77.0434399
asa(dp1393
g2
I263112609
sg3
(lp1394
F-12.0915116
aF-77.0453921
asa(dp1395
g2
I263112610
sg3
(lp1396
F-12.0913437
aF-77.0442615
asa(dp1397
g2
I263357767
sg3
(lp1398
F-12.0839868
aF-77.0459797
asa(dp1399
g2
I674941940
sg3
(lp1400
F-12.0743726
aF-77.062051
asa(dp1401
g2
I1273661375
sg3
(lp1402
F-12.0712761
aF-77.0535306
asa(dp1403
g2
I263391182
sg3
(lp1404
F-12.0799486
aF-77.0495439
asa(dp1405
g2
I263391183
sg3
(lp1406
F-12.0790733
aF-77.0488284
asa(dp1407
g2
I263391184
sg3
(lp1408
F-12.0788068
aF-77.0486139
asa(dp1409
g2
I263391185
sg3
(lp1410
F-12.078076
aF-77.047999
asa(dp1411
g2
I263391186
sg3
(lp1412
F-12.077257
aF-77.0473646
asa(dp1413
g2
I874898659
sg3
(lp1414
F-12.0696658
aF-77.06691
asa(dp1415
g2
I263358426
sg3
(lp1416
F-12.0812123
aF-77.0384437
asa(dp1417
g2
I263358427
sg3
(lp1418
F-12.0813625
aF-77.0394289
asa(dp1419
g2
I263358428
sg3
(lp1420
F-12.0814706
aF-77.0402322
asa(dp1421
g2
I263358429
sg3
(lp1422
F-12.0815823
aF-77.0410186
asa(dp1423
g2
I263358430
sg3
(lp1424
F-12.0816915
aF-77.0418838
asa(dp1425
g2
I472209412
sg3
(lp1426
F-12.0896096
aF-77.0442333
asa(dp1427
g2
I263393289
sg3
(lp1428
F-12.0797577
aF-77.0443326
asa(dp1429
g2
I263393290
sg3
(lp1430
F-12.0795977
aF-77.0457149
asa(dp1431
g2
I263393292
sg3
(lp1432
F-12.077733
aF-77.0504953
asa(dp1433
g2
I263393294
sg3
(lp1434
F-12.0751159
aF-77.053736
asa(dp1435
g2
I1399076879
sg3
(lp1436
F-12.0700155
aF-77.0546284
asa(dp1437
g2
I1425922069
sg3
(lp1438
F-12.0979045
aF-77.0557677
asa(dp1439
g2
I1425922073
sg3
(lp1440
F-12.0880296
aF-77.0506997
asa(dp1441
g2
I4346353695
sg3
(lp1442
F-12.0800676
aF-77.0378805
asa(dp1443
g2
I1425922080
sg3
(lp1444
F-12.0879577
aF-77.0506629
asa(dp1445
g2
I1273755995
sg3
(lp1446
F-12.0635482
aF-77.0578066
asa(dp1447
g2
I1425922084
sg3
(lp1448
F-12.1026853
aF-77.0582279
asa(dp1449
g2
I263395368
sg3
(lp1450
F-12.0731532
aF-77.0521159
asa(dp1451
g2
I1425922090
sg3
(lp1452
F-12.0929048
aF-77.0592669
asa(dp1453
g2
I263395371
sg3
(lp1454
F-12.0763185
aF-77.0481261
asa(dp1455
g2
I263395373
sg3
(lp1456
F-12.0763319
aF-77.0469061
asa(dp1457
g2
I263395374
sg3
(lp1458
F-12.0762458
aF-77.0450908
asa(dp1459
g2
I263395375
sg3
(lp1460
F-12.0762859
aF-77.0446555
asa(dp1461
g2
I263395376
sg3
(lp1462
F-12.0764116
aF-77.0434812
asa(dp1463
g2
I1425922099
sg3
(lp1464
F-12.0980204
aF-77.0558173
asa(dp1465
g2
I1399076916
sg3
(lp1466
F-12.0692109
aF-77.0545406
asa(dp1467
g2
I1273591861
sg3
(lp1468
F-12.0655077
aF-77.0564128
asa(dp1469
g2
I1273467913
sg3
(lp1470
F-12.0639054
aF-77.0409263
asa(dp1471
g2
I1425922104
sg3
(lp1472
F-12.0876437
aF-77.0601942
asa(dp1473
g2
I1273450164
sg3
(lp1474
F-12.0631308
aF-77.0576143
asa(dp1475
g2
I660656187
sg3
(lp1476
F-12.0713029
aF-77.0740051
asa(dp1477
g2
I1399076931
sg3
(lp1478
F-12.0707132
aF-77.0566506
asa(dp1479
g2
I1399076934
sg3
(lp1480
F-12.0705448
aF-77.0557602
asa(dp1481
g2
I1399076946
sg3
(lp1482
F-12.0696739
aF-77.0559317
asa(dp1483
g2
I1273895001
sg3
(lp1484
F-12.0845661
aF-77.0418215
asa(dp1485
g2
I263385182
sg3
(lp1486
F-12.0952397
aF-77.067185
asa(dp1487
g2
I263385183
sg3
(lp1488
F-12.0944611
aF-77.066505
asa(dp1489
g2
I263385184
sg3
(lp1490
F-12.0928935
aF-77.065221
asa(dp1491
g2
I263385185
sg3
(lp1492
F-12.0892399
aF-77.0622059
asa(dp1493
g2
I263386811
sg3
(lp1494
F-12.0888129
aF-77.0610891
asa(dp1495
g2
I2057539190
sg3
(lp1496
F-12.070537
aF-77.0552056
asa(dp1497
g2
I874903657
sg3
(lp1498
F-12.0698647
aF-77.0604083
asa(dp1499
g2
I874903661
sg3
(lp1500
F-12.0722279
aF-77.0646756
asa(dp1501
g2
I263401590
sg3
(lp1502
F-12.0727089
aF-77.0465937
asa(dp1503
g2
I263401591
sg3
(lp1504
F-12.0710213
aF-77.048694
asa(dp1505
g2
I660666489
sg3
(lp1506
F-12.0751928
aF-77.0693651
asa(dp1507
g2
I4334194813
sg3
(lp1508
F-12.0653267
aF-77.0457135
asa(dp1509
g2
I263384427
sg3
(lp1510
F-12.0936135
aF-77.0577932
asa(dp1511
g2
I687485067
sg3
(lp1512
F-12.0634755
aF-77.059861
asa(dp1513
g2
I262731927
sg3
(lp1514
F-12.0929371
aF-77.0386507
asa(dp1515
g2
I687485097
sg3
(lp1516
F-12.0635802
aF-77.0598928
asa(dp1517
g2
I263384434
sg3
(lp1518
F-12.0916664
aF-77.0635438
asa(dp1519
g2
I263377075
sg3
(lp1520
F-12.0946626
aF-77.0624169
asa(dp1521
g2
I263114100
sg3
(lp1522
F-12.0879763
aF-77.0458711
asa(dp1523
g2
I263121082
sg3
(lp1524
F-12.0862875
aF-77.0387062
asa(dp1525
g2
I263407803
sg3
(lp1526
F-12.0732021
aF-77.0395201
asa(dp1527
g2
I263121084
sg3
(lp1528
F-12.0865487
aF-77.0404912
asa(dp1529
g2
I2057539274
sg3
(lp1530
F-12.0734708
aF-77.0604862
asa(dp1531
g2
I263384437
sg3
(lp1532
F-12.0907013
aF-77.0647455
asa(dp1533
g2
I263121089
sg3
(lp1534
F-12.0870992
aF-77.0445929
asa(dp1535
g2
I263388534
sg3
(lp1536
F-12.0740146
aF-77.049846
asa(dp1537
g2
I4465408198
sg3
(lp1538
F-12.070412
aF-77.0404196
asa(dp1539
g2
I4465408200
sg3
(lp1540
F-12.0708778
aF-77.0407765
asa(dp1541
g2
I1273532108
sg3
(lp1542
F-12.0729199
aF-77.0581015
asa(dp1543
g2
I1273876682
sg3
(lp1544
F-12.0664167
aF-77.0585189
asa(dp1545
g2
I263384439
sg3
(lp1546
F-12.0898595
aF-77.0658342
asa(dp1547
g2
I632697036
sg3
(lp1548
F-12.0846686
aF-77.063216
asa(dp1549
g2
I4465408205
sg3
(lp1550
F-12.0705144
aF-77.0406047
asa(dp1551
g2
I263403726
sg3
(lp1552
F-12.0650641
aF-77.0435695
asa(dp1553
g2
I632697040
sg3
(lp1554
F-12.0827097
aF-77.0616252
asa(dp1555
g2
I638359762
sg3
(lp1556
F-12.0784056
aF-77.0613518
asa(dp1557
g2
I1273821219
sg3
(lp1558
F-12.0757466
aF-77.0561793
asa(dp1559
g2
I799373528
sg3
(lp1560
F-12.0736967
aF-77.0557332
asa(dp1561
g2
I799373532
sg3
(lp1562
F-12.0736
aF-77.0556729
asa(dp1563
g2
I263114106
sg3
(lp1564
F-12.0882379
aF-77.0422006
asa(dp1565
g2
I799373538
sg3
(lp1566
F-12.0733797
aF-77.0556315
asa(dp1567
g2
I1273918843
sg3
(lp1568
F-12.0749228
aF-77.0631968
asa(dp1569
g2
I1335966916
sg3
(lp1570
F-12.085092
aF-77.0486916
asa(dp1571
g2
I799373542
sg3
(lp1572
F-12.0717115
aF-77.0553316
asa(dp1573
g2
I316803305
sg3
(lp1574
F-12.0722091
aF-77.0653025
asa(dp1575
g2
I262729964
sg3
(lp1576
F-12.0948061
aF-77.0554017
asa(dp1577
g2
I262729965
sg3
(lp1578
F-12.0943796
aF-77.0562987
asa(dp1579
g2
I2840596718
sg3
(lp1580
F-12.0853687
aF-77.0510586
asa(dp1581
g2
I2840596721
sg3
(lp1582
F-12.0851335
aF-77.0488923
asa(dp1583
g2
I263384350
sg3
(lp1584
F-12.0921857
aF-77.0632354
asa(dp1585
g2
I799340788
sg3
(lp1586
F-12.0681103
aF-77.0591745
asa(dp1587
g2
I799340790
sg3
(lp1588
F-12.068147
aF-77.0588884
asa(dp1589
g2
I799340827
sg3
(lp1590
F-12.0687571
aF-77.0582778
asa(dp1591
g2
I799340794
sg3
(lp1592
F-12.0683532
aF-77.0583676
asa(dp1593
g2
I262729979
sg3
(lp1594
F-12.0950575
aF-77.0544348
asa(dp1595
g2
I632697086
sg3
(lp1596
F-12.085888
aF-77.062889
asa(dp1597
g2
I263114112
sg3
(lp1598
F-12.0890879
aF-77.037495
asa(dp1599
g2
I263114113
sg3
(lp1600
F-12.0889643
aF-77.0366787
asa(dp1601
g2
I263384791
sg3
(lp1602
F-12.091517
aF-77.0615047
asa(dp1603
g2
I263114114
sg3
(lp1604
F-12.0888526
aF-77.0358663
asa(dp1605
g2
I503691309
sg3
(lp1606
F-12.0819973
aF-77.0645888
asa(dp1607
g2
I799340816
sg3
(lp1608
F-12.0705075
aF-77.0579058
asa(dp1609
g2
I262730011
sg3
(lp1610
F-12.0939752
aF-77.0520114
asa(dp1611
g2
I1273714974
sg3
(lp1612
F-12.0766103
aF-77.0642366
asa(dp1613
g2
I799373606
sg3
(lp1614
F-12.0672362
aF-77.0545455
asa(dp1615
g2
I799340840
sg3
(lp1616
F-12.0671221
aF-77.0581481
asa(dp1617
g2
I263384796
sg3
(lp1618
F-12.0919628
aF-77.0600998
asa(dp1619
g2
I263387436
sg3
(lp1620
F-12.0842472
aF-77.0516563
asa(dp1621
g2
I263387437
sg3
(lp1622
F-12.0841801
aF-77.0515619
asa(dp1623
g2
I799373619
sg3
(lp1624
F-12.0708403
aF-77.0552595
asa(dp1625
g2
I1273737524
sg3
(lp1626
F-12.0677805
aF-77.0736096
asa(dp1627
g2
I799373627
sg3
(lp1628
F-12.0735419
aF-77.0557471
asa(dp1629
g2
I4341700933
sg3
(lp1630
F-12.0792551
aF-77.0486395
asa(dp1631
g2
I915282248
sg3
(lp1632
F-12.0688821
aF-77.0525415
asa(dp1633
g2
I799373643
sg3
(lp1634
F-12.0714013
aF-77.0577117
asa(dp1635
g2
I2429826786
sg3
(lp1636
F-12.0757835
aF-77.0607736
asa(dp1637
g2
I799340882
sg3
(lp1638
F-12.0707336
aF-77.0590133
asa(dp1639
g2
I2429826787
sg3
(lp1640
F-12.0760615
aF-77.0593188
asa(dp1641
g2
I799340885
sg3
(lp1642
F-12.0703877
aF-77.057344
asa(dp1643
g2
I799340886
sg3
(lp1644
F-12.070274
aF-77.0567526
asa(dp1645
g2
I799340888
sg3
(lp1646
F-12.0701093
aF-77.0558442
asa(dp1647
g2
I1334827354
sg3
(lp1648
F-12.0639863
aF-77.0428409
asa(dp1649
g2
I674943375
sg3
(lp1650
F-12.0784352
aF-77.0593304
asa(dp1651
g2
I799340893
sg3
(lp1652
F-12.0699505
aF-77.0550057
asa(dp1653
g2
I799373662
sg3
(lp1654
F-12.0711391
aF-77.0565553
asa(dp1655
g2
I263401823
sg3
(lp1656
F-12.0692445
aF-77.0488713
asa(dp1657
g2
I799340905
sg3
(lp1658
F-12.0719169
aF-77.0588859
asa(dp1659
g2
I799340906
sg3
(lp1660
F-12.0717974
aF-77.0588838
asa(dp1661
g2
I799373675
sg3
(lp1662
F-12.070927
aF-77.0556671
asa(dp1663
g2
I2057539305
sg3
(lp1664
F-12.0738526
aF-77.0580218
asa(dp1665
g2
I799340920
sg3
(lp1666
F-12.0698419
aF-77.059178
asa(dp1667
g2
I1943099017
sg3
(lp1668
F-12.0681764
aF-77.0481541
asa(dp1669
g2
I799340926
sg3
(lp1670
F-12.0691041
aF-77.0594485
asa(dp1671
g2
I4334049666
sg3
(lp1672
F-12.0853803
aF-77.0622532
asa(dp1673
g2
I799340933
sg3
(lp1674
F-12.0678414
aF-77.0605866
asa(dp1675
g2
I874949002
sg3
(lp1676
F-12.0756607
aF-77.056734
asa(dp1677
g2
I674943374
sg3
(lp1678
F-12.0778246
aF-77.0610411
asa(dp1679
g2
I638351759
sg3
(lp1680
F-12.0840504
aF-77.0639848
asa(dp1681
g2
I638351761
sg3
(lp1682
F-12.0831158
aF-77.063209
asa(dp1683
g2
I638351764
sg3
(lp1684
F-12.0820971
aF-77.0623891
asa(dp1685
g2
I638351766
sg3
(lp1686
F-12.08009
aF-77.0606932
asa(dp1687
g2
I638351769
sg3
(lp1688
F-12.0792256
aF-77.0600099
asa(dp1689
g2
I638357936
sg3
(lp1690
F-12.0787386
aF-77.0650883
asa(dp1691
g2
I638350408
sg3
(lp1692
F-12.0800766
aF-77.063005
asa(dp1693
g2
I799340978
sg3
(lp1694
F-12.0691707
aF-77.0595653
asa(dp1695
g2
I674937273
sg3
(lp1696
F-12.0749052
aF-77.0632702
asa(dp1697
g2
I799340986
sg3
(lp1698
F-12.0698679
aF-77.0592979
asa(dp1699
g2
I263384425
sg3
(lp1700
F-12.0937852
aF-77.0570768
asa(dp1701
g2
I4341742017
sg3
(lp1702
F-12.0812294
aF-77.0532446
asa(dp1703
g2
I2064693699
sg3
(lp1704
F-12.0727128
aF-77.0468834
asa(dp1705
g2
I799373776
sg3
(lp1706
F-12.0681269
aF-77.0572096
asa(dp1707
g2
I1639104067
sg3
(lp1708
F-12.0846734
aF-77.0426083
asa(dp1709
g2
I799341011
sg3
(lp1710
F-12.069851
aF-77.0615267
asa(dp1711
g2
I4143584334
sg3
(lp1712
F-12.0845396
aF-77.0615697
asa(dp1713
g2
I799341015
sg3
(lp1714
F-12.0698536
aF-77.0613558
asa(dp1715
g2
I632697315
sg3
(lp1716
F-12.0852477
aF-77.0636894
asa(dp1717
g2
I799341031
sg3
(lp1718
F-12.0697271
aF-77.0586162
asa(dp1719
g2
I799341036
sg3
(lp1720
F-12.0696212
aF-77.0580892
asa(dp1721
g2
I799373805
sg3
(lp1722
F-12.0687909
aF-77.0555037
asa(dp1723
g2
I263387630
sg3
(lp1724
F-12.0840567
aF-77.0516365
asa(dp1725
g2
I263387632
sg3
(lp1726
F-12.0847796
aF-77.0525582
asa(dp1727
g2
I263387633
sg3
(lp1728
F-12.0856988
aF-77.0536999
asa(dp1729
g2
I263387635
sg3
(lp1730
F-12.0866223
aF-77.0548543
asa(dp1731
g2
I263387636
sg3
(lp1732
F-12.0873772
aF-77.0557893
asa(dp1733
g2
I316803573
sg3
(lp1734
F-12.0673016
aF-77.0605127
asa(dp1735
g2
I263387638
sg3
(lp1736
F-12.0884917
aF-77.0567166
asa(dp1737
g2
I799373818
sg3
(lp1738
F-12.0688463
aF-77.0570623
asa(dp1739
g2
I799373819
sg3
(lp1740
F-12.0698415
aF-77.0568481
asa(dp1741
g2
I799341054
sg3
(lp1742
F-12.069522
aF-77.0575335
asa(dp1743
g2
I1273469440
sg3
(lp1744
F-12.0866327
aF-77.0631698
asa(dp1745
g2
I799341059
sg3
(lp1746
F-12.0694066
aF-77.0569514
asa(dp1747
g2
I799341063
sg3
(lp1748
F-12.0692203
aF-77.0560159
asa(dp1749
g2
I799373836
sg3
(lp1750
F-12.0727599
aF-77.056898
asa(dp1751
g2
I799341069
sg3
(lp1752
F-12.0691158
aF-77.0554487
asa(dp1753
g2
I799341076
sg3
(lp1754
F-12.0690263
aF-77.0549269
asa(dp1755
g2
I263395861
sg3
(lp1756
F-12.0750388
aF-77.0468968
asa(dp1757
g2
I263395862
sg3
(lp1758
F-12.0737912
aF-77.0468855
asa(dp1759
g2
I263395863
sg3
(lp1760
F-12.0724711
aF-77.0468895
asa(dp1761
g2
I799341096
sg3
(lp1762
F-12.0687689
aF-77.0589613
asa(dp1763
g2
I674937393
sg3
(lp1764
F-12.0755659
aF-77.0644317
asa(dp1765
g2
I799341107
sg3
(lp1766
F-12.0681503
aF-77.0560825
asa(dp1767
g2
I660675337
sg3
(lp1768
F-12.0755385
aF-77.0658946
asa(dp1769
g2
I915282488
sg3
(lp1770
F-12.0634352
aF-77.044349
asa(dp1771
g2
I263110069
sg3
(lp1772
F-12.0879462
aF-77.0507914
asa(dp1773
g2
I638358081
sg3
(lp1774
F-12.0790725
aF-77.0633684
asa(dp1775
g2
I638358082
sg3
(lp1776
F-12.0788478
aF-77.0644141
asa(dp1777
g2
I263110070
sg3
(lp1778
F-12.0928937
aF-77.0533038
asa(dp1779
g2
I499751496
sg3
(lp1780
F-12.067678
aF-77.069506
asa(dp1781
g2
I1273926218
sg3
(lp1782
F-12.0647703
aF-77.0542494
asa(dp1783
g2
I263110071
sg3
(lp1784
F-12.0930397
aF-77.0533806
asa(dp1785
g2
I1273591907
sg3
(lp1786
F-12.0869814
aF-77.0586007
asa(dp1787
g2
I799341151
sg3
(lp1788
F-12.0672796
aF-77.0592474
asa(dp1789
g2
I263377505
sg3
(lp1790
F-12.0946456
aF-77.0553304
asa(dp1791
g2
I263377506
sg3
(lp1792
F-12.0938149
aF-77.0549007
asa(dp1793
g2
I263377507
sg3
(lp1794
F-12.0925057
aF-77.0542226
asa(dp1795
g2
I263388266
sg3
(lp1796
F-12.0860601
aF-77.0564628
asa(dp1797
g2
I263387773
sg3
(lp1798
F-12.0879751
aF-77.0573504
asa(dp1799
g2
I263387774
sg3
(lp1800
F-12.0873801
aF-77.0581053
asa(dp1801
g2
I263387775
sg3
(lp1802
F-12.0873002
aF-77.0582026
asa(dp1803
g2
I263387776
sg3
(lp1804
F-12.0871366
aF-77.0584164
asa(dp1805
g2
I1943098997
sg3
(lp1806
F-12.0858893
aF-77.0627699
asa(dp1807
g2
I263387778
sg3
(lp1808
F-12.0866541
aF-77.0590143
asa(dp1809
g2
I263387779
sg3
(lp1810
F-12.0846171
aF-77.0615349
asa(dp1811
g2
I1273820269
sg3
(lp1812
F-12.0646823
aF-77.0602869
asa(dp1813
g2
I874949267
sg3
(lp1814
F-12.073864
aF-77.0585058
asa(dp1815
g2
I1273649834
sg3
(lp1816
F-12.0709105
aF-77.0528706
asa(dp1817
g2
I915282612
sg3
(lp1818
F-12.06386
aF-77.0483062
asa(dp1819
g2
I1399063223
sg3
(lp1820
F-12.0635445
aF-77.0548446
asa(dp1821
g2
I263111353
sg3
(lp1822
F-12.0913546
aF-77.0388783
asa(dp1823
g2
I1273631418
sg3
(lp1824
F-12.0691467
aF-77.0542374
asa(dp1825
g2
I263387857
sg3
(lp1826
F-12.0874992
aF-77.0587166
asa(dp1827
g2
I263387858
sg3
(lp1828
F-12.0878504
aF-77.0590072
asa(dp1829
g2
I263387859
sg3
(lp1830
F-12.0882987
aF-77.0593784
asa(dp1831
g2
I263389913
sg3
(lp1832
F-12.0798359
aF-77.0576135
asa(dp1833
g2
I1273502843
sg3
(lp1834
F-12.0822367
aF-77.0631885
asa(dp1835
g2
I308131622
sg3
(lp1836
F-12.0645224
aF-77.0393742
asa(dp1837
g2
I2055741223
sg3
(lp1838
F-12.0673824
aF-77.0599251
asa(dp1839
g2
I674944808
sg3
(lp1840
F-12.0767644
aF-77.0579511
asa(dp1841
g2
I1273928147
sg3
(lp1842
F-12.0643664
aF-77.0557672
asa(dp1843
g2
I915282687
sg3
(lp1844
F-12.06807
aF-77.053533
asa(dp1845
g2
I2058517254
sg3
(lp1846
F-12.0793413
aF-77.0651597
asa(dp1847
g2
I263385865
sg3
(lp1848
F-12.0926316
aF-77.0636039
asa(dp1849
g2
I1273606923
sg3
(lp1850
F-12.0924932
aF-77.0603642
asa(dp1851
g2
I378301200
sg3
(lp1852
F-12.080494
aF-77.0584181
asa(dp1853
g2
I1273570069
sg3
(lp1854
F-12.088795
aF-77.06408
asa(dp1855
g2
I263387931
sg3
(lp1856
F-12.0884487
aF-77.0582747
asa(dp1857
g2
I1836204828
sg3
(lp1858
F-12.0676224
aF-77.0669919
asa(dp1859
g2
I2058517279
sg3
(lp1860
F-12.079978
aF-77.064912
asa(dp1861
g2
I1273778977
sg3
(lp1862
F-12.0629713
aF-77.040179
asa(dp1863
g2
I2057539368
sg3
(lp1864
F-12.0747872
aF-77.0591038
asa(dp1865
g2
I3450829628
sg3
(lp1866
F-12.0636092
aF-77.0598016
asa(dp1867
g2
I1334721342
sg3
(lp1868
F-12.0622167
aF-77.043032
asa(dp1869
g2
I263388981
sg3
(lp1870
F-12.0827338
aF-77.0577209
asa(dp1871
g2
I1273846593
sg3
(lp1872
F-12.0628764
aF-77.0585748
asa(dp1873
g2
I2057539437
sg3
(lp1874
F-12.0786611
aF-77.0569041
asa(dp1875
g2
I1273582415
sg3
(lp1876
F-12.0723855
aF-77.0573764
asa(dp1877
g2
I660673369
sg3
(lp1878
F-12.0772216
aF-77.0645759
asa(dp1879
g2
I263388303
sg3
(lp1880
F-12.0840397
aF-77.0530087
asa(dp1881
g2
I2058517295
sg3
(lp1882
F-12.0805051
aF-77.0650304
asa(dp1883
g2
I263388003
sg3
(lp1884
F-12.0881042
aF-77.0586965
asa(dp1885
g2
I263388004
sg3
(lp1886
F-12.0883333
aF-77.058416
asa(dp1887
g2
I263388005
sg3
(lp1888
F-12.0886087
aF-77.0580789
asa(dp1889
g2
I2058517352
sg3
(lp1890
F-12.0827627
aF-77.0636485
asa(dp1891
g2
I263402345
sg3
(lp1892
F-12.068249
aF-77.0480638
asa(dp1893
g2
I263402346
sg3
(lp1894
F-12.0722612
aF-77.0404039
asa(dp1895
g2
I263402347
sg3
(lp1896
F-12.0723841
aF-77.0396163
asa(dp1897
g2
I263402349
sg3
(lp1898
F-12.0724635
aF-77.0390257
asa(dp1899
g2
I263402350
sg3
(lp1900
F-12.0725001
aF-77.0388047
asa(dp1901
g2
I263402351
sg3
(lp1902
F-12.0726267
aF-77.0380488
asa(dp1903
g2
I2058517311
sg3
(lp1904
F-12.0813878
aF-77.0632627
asa(dp1905
g2
I3669613448
sg3
(lp1906
F-12.0750191
aF-77.047609
asa(dp1907
g2
I263388532
sg3
(lp1908
F-12.0755618
aF-77.0511482
asa(dp1909
g2
I1273527183
sg3
(lp1910
F-12.0639682
aF-77.0579961
asa(dp1911
g2
I4325766723
sg3
(lp1912
F-12.0644869
aF-77.044086
asa(dp1913
g2
I874898538
sg3
(lp1914
F-12.0711701
aF-77.0616381
asa(dp1915
g2
I263388054
sg3
(lp1916
F-12.0876141
aF-77.0578066
asa(dp1917
g2
I263388059
sg3
(lp1918
F-12.0867231
aF-77.054729
asa(dp1919
g2
I2053915552
sg3
(lp1920
F-12.0672326
aF-77.0599422
asa(dp1921
g2
I2058517413
sg3
(lp1922
F-12.0843072
aF-77.063658
asa(dp1923
g2
I263390121
sg3
(lp1924
F-12.0836422
aF-77.0506506
asa(dp1925
g2
I1273824171
sg3
(lp1926
F-12.0645079
aF-77.055263
asa(dp1927
g2
I263111596
sg3
(lp1928
F-12.0924011
aF-77.0464148
asa(dp1929
g2
I2058517423
sg3
(lp1930
F-12.0844048
aF-77.0635365
asa(dp1931
g2
I263113203
sg3
(lp1932
F-12.0895936
aF-77.0374216
asa(dp1933
g2
I2053915573
sg3
(lp1934
F-12.0687139
aF-77.0503557
asa(dp1935
g2
I1273869242
sg3
(lp1936
F-12.0694737
aF-77.0444654
asa(dp1937
g2
I1273969597
sg3
(lp1938
F-12.0658375
aF-77.0490169
asa(dp1939
g2
I263384565
sg3
(lp1940
F-12.0900292
aF-77.0576073
asa(dp1941
g2
I2022120386
sg3
(lp1942
F-12.0806021
aF-77.058404
asa(dp1943
g2
I1943098870
sg3
(lp1944
F-12.0786284
aF-77.0567068
asa(dp1945
g2
I638350279
sg3
(lp1946
F-12.0792564
aF-77.0655909
asa(dp1947
g2
I263388107
sg3
(lp1948
F-12.0862639
aF-77.0552998
asa(dp1949
g2
I263388108
sg3
(lp1950
F-12.0858444
aF-77.0558211
asa(dp1951
g2
I263388109
sg3
(lp1952
F-12.0852732
aF-77.056531
asa(dp1953
g2
I263388110
sg3
(lp1954
F-12.0851058
aF-77.0567391
asa(dp1955
g2
I263388111
sg3
(lp1956
F-12.084949
aF-77.0569339
asa(dp1957
g2
I263388112
sg3
(lp1958
F-12.0844771
aF-77.0575204
asa(dp1959
g2
I263388113
sg3
(lp1960
F-12.0840068
aF-77.0581049
asa(dp1961
g2
I263388114
sg3
(lp1962
F-12.0836882
aF-77.0585009
asa(dp1963
g2
I263388115
sg3
(lp1964
F-12.0833885
aF-77.0588733
asa(dp1965
g2
I263388116
sg3
(lp1966
F-12.0825898
aF-77.059866
asa(dp1967
g2
I263388127
sg3
(lp1968
F-12.0868201
aF-77.0578067
asa(dp1969
g2
I263388128
sg3
(lp1970
F-12.0857093
aF-77.0568906
asa(dp1971
g2
I499719142
sg3
(lp1972
F-12.0676397
aF-77.067618
asa(dp1973
g2
I263404834
sg3
(lp1974
F-12.0768721
aF-77.0391007
asa(dp1975
g2
I638352372
sg3
(lp1976
F-12.0818289
aF-77.0627153
asa(dp1977
g2
I263396343
sg3
(lp1978
F-12.0721694
aF-77.0512982
asa(dp1979
g2
I2057539412
sg3
(lp1980
F-12.0755496
aF-77.0598165
asa(dp1981
g2
I2055741329
sg3
(lp1982
F-12.0682987
aF-77.058406
asa(dp1983
g2
I263386120
sg3
(lp1984
F-12.0950402
aF-77.0673891
asa(dp1985
g2
I638350508
sg3
(lp1986
F-12.0800278
aF-77.064689
asa(dp1987
g2
I660657169
sg3
(lp1988
F-12.0755661
aF-77.0636481
asa(dp1989
g2
I660657170
sg3
(lp1990
F-12.0755602
aF-77.0635552
asa(dp1991
g2
I660657173
sg3
(lp1992
F-12.0754366
aF-77.068644
asa(dp1993
g2
I660657174
sg3
(lp1994
F-12.0754896
aF-77.0622637
asa(dp1995
g2
I660657176
sg3
(lp1996
F-12.0754311
aF-77.059353
asa(dp1997
g2
I638350511
sg3
(lp1998
F-12.0814523
aF-77.0624017
asa(dp1999
g2
I1273952775
sg3
(lp2000
F-12.0706353
aF-77.0533823
asa(dp2001
g2
I263386169
sg3
(lp2002
F-12.0942713
aF-77.0667401
asa(dp2003
g2
I263388229
sg3
(lp2004
F-12.0872687
aF-77.0571338
asa(dp2005
g2
I638350406
sg3
(lp2006
F-12.0796367
aF-77.0634938
asa(dp2007
g2
I263388231
sg3
(lp2008
F-12.0867138
aF-77.0566139
asa(dp2009
g2
I263388232
sg3
(lp2010
F-12.0863659
aF-77.0563308
asa(dp2011
g2
I263388234
sg3
(lp2012
F-12.084526
aF-77.0549437
asa(dp2013
g2
I263388235
sg3
(lp2014
F-12.0834058
aF-77.0542001
asa(dp2015
g2
I263388236
sg3
(lp2016
F-12.0832967
aF-77.0541276
asa(dp2017
g2
I108171106
sg3
(lp2018
F-12.0847879
aF-77.0355883
asa(dp2019
g2
I263388238
sg3
(lp2020
F-12.0827106
aF-77.0538452
asa(dp2021
g2
I263388240
sg3
(lp2022
F-12.0821048
aF-77.0538137
asa(dp2023
g2
I263388242
sg3
(lp2024
F-12.0816932
aF-77.0539372
asa(dp2025
g2
I263388245
sg3
(lp2026
F-12.0810772
aF-77.0544393
asa(dp2027
g2
I263388246
sg3
(lp2028
F-12.0804678
aF-77.055188
asa(dp2029
g2
I4143584349
sg3
(lp2030
F-12.0875789
aF-77.0641508
asa(dp2031
g2
I1273716085
sg3
(lp2032
F-12.0840292
aF-77.0385458
asa(dp2033
g2
I874898534
sg3
(lp2034
F-12.0676635
aF-77.0637888
asa(dp2035
g2
I874898536
sg3
(lp2036
F-12.0709481
aF-77.0640957
asa(dp2037
g2
I874898537
sg3
(lp2038
F-12.0711056
aF-77.0624619
asa(dp2039
g2
I262730858
sg3
(lp2040
F-12.0942998
aF-77.0472891
asa(dp2041
g2
I262730859
sg3
(lp2042
F-12.0941392
aF-77.0473176
asa(dp2043
g2
I670366829
sg3
(lp2044
F-12.0736224
aF-77.0690474
asa(dp2045
g2
I670366830
sg3
(lp2046
F-12.0722717
aF-77.068887
asa(dp2047
g2
I670366831
sg3
(lp2048
F-12.0721701
aF-77.0688747
asa(dp2049
g2
I1273732208
sg3
(lp2050
F-12.0637287
aF-77.0635001
asa(dp2051
g2
I674944115
sg3
(lp2052
F-12.0780419
aF-77.0604138
asa(dp2053
g2
I1855181942
sg3
(lp2054
F-12.0628597
aF-77.040083
asa(dp2055
g2
I4337702008
sg3
(lp2056
F-12.0880505
aF-77.0506795
asa(dp2057
g2
I1273485844
sg3
(lp2058
F-12.0641508
aF-77.0619186
asa(dp2059
g2
I263109823
sg3
(lp2060
F-12.0738257
aF-77.0417981
asa(dp2061
g2
I670366848
sg3
(lp2062
F-12.0721009
aF-77.0701597
asa(dp2063
g2
I1273945622
sg3
(lp2064
F-12.0763114
aF-77.0640728
asa(dp2065
g2
I263386247
sg3
(lp2066
F-12.0890647
aF-77.0624195
asa(dp2067
g2
I263386248
sg3
(lp2068
F-12.0927104
aF-77.0654629
asa(dp2069
g2
I263109773
sg3
(lp2070
F-12.093174
aF-77.0531918
asa(dp2071
g2
I263109774
sg3
(lp2072
F-12.0930146
aF-77.053106
asa(dp2073
g2
I263109775
sg3
(lp2074
F-12.091613
aF-77.0523678
asa(dp2075
g2
I263109776
sg3
(lp2076
F-12.0894358
aF-77.0512697
asa(dp2077
g2
I263388305
sg3
(lp2078
F-12.0834452
aF-77.0531397
asa(dp2079
g2
I263109778
sg3
(lp2080
F-12.0880082
aF-77.0505592
asa(dp2081
g2
I263109827
sg3
(lp2082
F-12.0708436
aF-77.0405083
asa(dp2083
g2
I263109782
sg3
(lp2084
F-12.086292
aF-77.0496298
asa(dp2085
g2
I263388312
sg3
(lp2086
F-12.0851026
aF-77.0543222
asa(dp2087
g2
I263109786
sg3
(lp2088
F-12.0851627
aF-77.0486346
asa(dp2089
g2
I263109788
sg3
(lp2090
F-12.0842186
aF-77.0475662
asa(dp2091
g2
I263109790
sg3
(lp2092
F-12.0833125
aF-77.0465142
asa(dp2093
g2
I263109791
sg3
(lp2094
F-12.0830242
aF-77.0462175
asa(dp2095
g2
I263109793
sg3
(lp2096
F-12.0827022
aF-77.0458227
asa(dp2097
g2
I263109794
sg3
(lp2098
F-12.0825811
aF-77.0456006
asa(dp2099
g2
I1273705635
sg3
(lp2100
F-12.0810427
aF-77.057718
asa(dp2101
g2
I309998790
sg3
(lp2102
F-12.0605673
aF-77.0419915
asa(dp2103
g2
I638350507
sg3
(lp2104
F-12.0798895
aF-77.0652744
asa(dp2105
g2
I263388332
sg3
(lp2106
F-12.083848
aF-77.0557085
asa(dp2107
g2
I263388335
sg3
(lp2108
F-12.0834452
aF-77.0564
asa(dp2109
g2
I263109809
sg3
(lp2110
F-12.0796892
aF-77.0421816
asa(dp2111
g2
I263109810
sg3
(lp2112
F-12.0795654
aF-77.0421652
asa(dp2113
g2
I263388339
sg3
(lp2114
F-12.0830569
aF-77.057319
asa(dp2115
g2
I263388340
sg3
(lp2116
F-12.0824363
aF-77.0580951
asa(dp2117
g2
I263109813
sg3
(lp2118
F-12.076562
aF-77.0420821
asa(dp2119
g2
I1273607350
sg3
(lp2120
F-12.0670632
aF-77.0586586
asa(dp2121
g2
I263109815
sg3
(lp2122
F-12.0764944
aF-77.0420852
asa(dp2123
g2
I1273650361
sg3
(lp2124
F-12.0671932
aF-77.0586353
asa(dp2125
g2
I263109818
sg3
(lp2126
F-12.075194
aF-77.0419957
asa(dp2127
g2
I263109819
sg3
(lp2128
F-12.07505
aF-77.0419773
asa(dp2129
g2
I263394495
sg3
(lp2130
F-12.078609
aF-77.0565965
asa(dp2131
g2
I263394497
sg3
(lp2132
F-12.0772095
aF-77.0470396
asa(dp2133
g2
I263109826
sg3
(lp2134
F-12.0721397
aF-77.0410999
asa(dp2135
g2
I263394499
sg3
(lp2136
F-12.0771927
aF-77.046924
asa(dp2137
g2
I263394500
sg3
(lp2138
F-12.0770645
aF-77.0460461
asa(dp2139
g2
I263394501
sg3
(lp2140
F-12.0769413
aF-77.0452022
asa(dp2141
g2
I263394502
sg3
(lp2142
F-12.0768315
aF-77.0444502
asa(dp2143
g2
I263394503
sg3
(lp2144
F-12.0766876
aF-77.0434647
asa(dp2145
g2
I263394504
sg3
(lp2146
F-12.0764111
aF-77.0415195
asa(dp2147
g2
I4465408204
sg3
(lp2148
F-12.070614
aF-77.0404035
asa(dp2149
g2
I263394506
sg3
(lp2150
F-12.0762709
aF-77.0405671
asa(dp2151
g2
I263394507
sg3
(lp2152
F-12.0761645
aF-77.0398444
asa(dp2153
g2
I1273844946
sg3
(lp2154
F-12.0632472
aF-77.0587066
asa(dp2155
g2
I632697038
sg3
(lp2156
F-12.0837259
aF-77.0624415
asa(dp2157
g2
I1428542681
sg3
(lp2158
F-12.0765052
aF-77.0422003
asa(dp2159
g2
I1428542683
sg3
(lp2160
F-12.0751978
aF-77.0421072
asa(dp2161
g2
I263390429
sg3
(lp2162
F-12.0796146
aF-77.0532098
asa(dp2163
g2
I1856595167
sg3
(lp2164
F-12.0647474
aF-77.0419593
asa(dp2165
g2
I1273877728
sg3
(lp2166
F-12.0637503
aF-77.0633466
asa(dp2167
g2
I1856595169
sg3
(lp2168
F-12.0652554
aF-77.0455743
asa(dp2169
g2
I4465408197
sg3
(lp2170
F-12.0710105
aF-77.0407588
asa(dp2171
g2
I263390435
sg3
(lp2172
F-12.0752073
aF-77.0495434
asa(dp2173
g2
I263122148
sg3
(lp2174
F-12.0852308
aF-77.0474391
asa(dp2175
g2
I1428542693
sg3
(lp2176
F-12.0750575
aF-77.0420911
asa(dp2177
g2
I799373799
sg3
(lp2178
F-12.0686972
aF-77.0561503
asa(dp2179
g2
I1428542698
sg3
(lp2180
F-12.0652131
aF-77.0390169
asa(dp2181
g2
I1428542703
sg3
(lp2182
F-12.0738221
aF-77.0419025
asa(dp2183
g2
I1943098920
sg3
(lp2184
F-12.0720972
aF-77.0513883
asa(dp2185
g2
I1428542706
sg3
(lp2186
F-12.0721163
aF-77.0411942
asa(dp2187
g2
I1273982579
sg3
(lp2188
F-12.0690414
aF-77.0545145
asa(dp2189
g2
I3313153268
sg3
(lp2190
F-12.0606821
aF-77.041868
asa(dp2191
g2
I2991672873
sg3
(lp2192
F-12.0705631
aF-77.0773789
asa(dp2193
g2
I817655147
sg3
(lp2194
F-12.0732671
aF-77.0541022
asa(dp2195
g2
I874898694
sg3
(lp2196
F-12.0676938
aF-77.0648843
asa(dp2197
g2
I263384344
sg3
(lp2198
F-12.0899893
aF-77.0659488
asa(dp2199
g2
I263384345
sg3
(lp2200
F-12.0904411
aF-77.0654064
asa(dp2201
g2
I263384346
sg3
(lp2202
F-12.0908607
aF-77.0648742
asa(dp2203
g2
I263384347
sg3
(lp2204
F-12.0913391
aF-77.064282
asa(dp2205
g2
I263384348
sg3
(lp2206
F-12.0914979
aF-77.0640752
asa(dp2207
g2
I263384349
sg3
(lp2208
F-12.0918254
aF-77.0636753
asa(dp2209
g2
I263400734
sg3
(lp2210
F-12.0711895
aF-77.0504852
asa(dp2211
g2
I263400735
sg3
(lp2212
F-12.071989
aF-77.0494879
asa(dp2213
g2
I263400736
sg3
(lp2214
F-12.0738053
aF-77.0444406
asa(dp2215
g2
I263404833
sg3
(lp2216
F-12.0768003
aF-77.0397603
asa(dp2217
g2
I263400738
sg3
(lp2218
F-12.0738248
aF-77.0406518
asa(dp2219
g2
I263400739
sg3
(lp2220
F-12.0738454
aF-77.0396212
asa(dp2221
g2
I263396644
sg3
(lp2222
F-12.0750756
aF-77.0441978
asa(dp2223
g2
I263396645
sg3
(lp2224
F-12.0750592
aF-77.0450628
asa(dp2225
g2
I874949927
sg3
(lp2226
F-12.0756621
aF-77.061322
asa(dp2227
g2
I696749354
sg3
(lp2228
F-12.0651526
aF-77.0442168
asa(dp2229
g2
I1273940189
sg3
(lp2230
F-12.0707633
aF-77.0530661
asa(dp2231
g2
I817655091
sg3
(lp2232
F-12.0742316
aF-77.0548864
asa(dp2233
g2
I4326403380
sg3
(lp2234
F-12.0700501
aF-77.0391996
asa(dp2235
g2
I4326403381
sg3
(lp2236
F-12.0699703
aF-77.0391462
asa(dp2237
g2
I4326403382
sg3
(lp2238
F-12.070041
aF-77.0393257
asa(dp2239
g2
I874949943
sg3
(lp2240
F-12.0734064
aF-77.0590968
asa(dp2241
g2
I2547275317
sg3
(lp2242
F-12.0727272
aF-77.0434574
asa(dp2243
g2
I263357764
sg3
(lp2244
F-12.0837462
aF-77.0443122
asa(dp2245
g2
I638350661
sg3
(lp2246
F-12.0805323
aF-77.0649041
asa(dp2247
g2
I263408972
sg3
(lp2248
F-12.0716585
aF-77.0388867
asa(dp2249
g2
I263408973
sg3
(lp2250
F-12.0705536
aF-77.0386932
asa(dp2251
g2
I263112014
sg3
(lp2252
F-12.0916772
aF-77.048816
asa(dp2253
g2
I263390543
sg3
(lp2254
F-12.0787754
aF-77.0511882
asa(dp2255
g2
I263382357
sg3
(lp2256
F-12.0960699
aF-77.0571873
asa(dp2257
g2
I1273720438
sg3
(lp2258
F-12.0682603
aF-77.0439883
asa(dp2259
g2
I263388518
sg3
(lp2260
F-12.0834884
aF-77.0606377
asa(dp2261
g2
I263388519
sg3
(lp2262
F-12.0843144
aF-77.05963
asa(dp2263
g2
I263388520
sg3
(lp2264
F-12.084927
aF-77.0588661
asa(dp2265
g2
I263388521
sg3
(lp2266
F-12.0820998
aF-77.0565273
asa(dp2267
g2
I263388522
sg3
(lp2268
F-12.0820333
aF-77.05647
asa(dp2269
g2
I263388523
sg3
(lp2270
F-12.0812503
aF-77.0558239
asa(dp2271
g2
I263384428
sg3
(lp2272
F-12.0931267
aF-77.0606857
asa(dp2273
g2
I263388525
sg3
(lp2274
F-12.079977
aF-77.0547789
asa(dp2275
g2
I263388526
sg3
(lp2276
F-12.0794926
aF-77.0543821
asa(dp2277
g2
I263388527
sg3
(lp2278
F-12.0790041
aF-77.053979
asa(dp2279
g2
I263388528
sg3
(lp2280
F-12.0785088
aF-77.0535695
asa(dp2281
g2
I263384433
sg3
(lp2282
F-12.0921913
aF-77.0628922
asa(dp2283
g2
I263388530
sg3
(lp2284
F-12.0775253
aF-77.0527591
asa(dp2285
g2
I263384435
sg3
(lp2286
F-12.0913502
aF-77.0639564
asa(dp2287
g2
I263384436
sg3
(lp2288
F-12.0911789
aF-77.0641611
asa(dp2289
g2
I263388533
sg3
(lp2290
F-12.074579
aF-77.050319
asa(dp2291
g2
I263384438
sg3
(lp2292
F-12.0902815
aF-77.0652901
asa(dp2293
g2
I263388535
sg3
(lp2294
F-12.0735939
aF-77.0495089
asa(dp2295
g2
I263388536
sg3
(lp2296
F-12.0726138
aF-77.048702
asa(dp2297
g2
I263388537
sg3
(lp2298
F-12.0716396
aF-77.0479038
asa(dp2299
g2
I263388538
sg3
(lp2300
F-12.0706636
aF-77.0470869
asa(dp2301
g2
I263388539
sg3
(lp2302
F-12.0696721
aF-77.0462691
asa(dp2303
g2
I263388541
sg3
(lp2304
F-12.0686939
aF-77.045462
asa(dp2305
g2
I263114110
sg3
(lp2306
F-12.0892001
aF-77.0382788
asa(dp2307
g2
I263388544
sg3
(lp2308
F-12.0675861
aF-77.0448006
asa(dp2309
g2
I263388545
sg3
(lp2310
F-12.0662418
aF-77.0444414
asa(dp2311
g2
I263409026
sg3
(lp2312
F-12.0723665
aF-77.0397343
asa(dp2313
g2
I263114115
sg3
(lp2314
F-12.0887443
aF-77.0350056
asa(dp2315
g2
I263397270
sg3
(lp2316
F-12.0789115
aF-77.0455788
asa(dp2317
g2
I263397271
sg3
(lp2318
F-12.078052
aF-77.0454069
asa(dp2319
g2
I2073408910
sg3
(lp2320
F-12.088061
aF-77.0426408
asa(dp2321
g2
I632696211
sg3
(lp2322
F-12.0856267
aF-77.0639946
asa(dp2323
g2
I593974679
sg3
(lp2324
F-12.0626373
aF-77.0472622
asa(dp2325
g2
I263388740
sg3
(lp2326
F-12.0841311
aF-77.0569696
asa(dp2327
g2
I309999004
sg3
(lp2328
F-12.0740561
aF-77.0530974
asa(dp2329
g2
I1943098949
sg3
(lp2330
F-12.0741118
aF-77.0529796
asa(dp2331
g2
I2073408930
sg3
(lp2332
F-12.0892087
aF-77.0393587
asa(dp2333
g2
I263384497
sg3
(lp2334
F-12.087747
aF-77.0613981
asa(dp2335
g2
I638361010
sg3
(lp2336
F-12.0782631
aF-77.0630947
asa(dp2337
g2
I263384499
sg3
(lp2338
F-12.0884604
aF-77.0603252
asa(dp2339
g2
I263384501
sg3
(lp2340
F-12.0891669
aF-77.0592649
asa(dp2341
g2
I263384502
sg3
(lp2342
F-12.0896407
aF-77.0585425
asa(dp2343
g2
I263384503
sg3
(lp2344
F-12.0900987
aF-77.0578407
asa(dp2345
g2
I263384504
sg3
(lp2346
F-12.0901677
aF-77.057741
asa(dp2347
g2
I263384506
sg3
(lp2348
F-12.091423
aF-77.0558448
asa(dp2349
g2
I263384508
sg3
(lp2350
F-12.0919518
aF-77.0550294
asa(dp2351
g2
I670348741
sg3
(lp2352
F-12.0745436
aF-77.0714964
asa(dp2353
g2
I1273673158
sg3
(lp2354
F-12.0644251
aF-77.0534148
asa(dp2355
g2
I660660077
sg3
(lp2356
F-12.0738506
aF-77.0740178
asa(dp2357
g2
I4035090782
sg3
(lp2358
F-12.0644572
aF-77.039179
asa(dp2359
g2
I1873952207
sg3
(lp2360
F-12.0706246
aF-77.0436472
asa(dp2361
g2
I1873952210
sg3
(lp2362
F-12.0707322
aF-77.0431365
asa(dp2363
g2
I263411156
sg3
(lp2364
F-12.0730311
aF-77.0405403
asa(dp2365
g2
I263388531
sg3
(lp2366
F-12.0765606
aF-77.05194
asa(dp2367
g2
I263409112
sg3
(lp2368
F-12.071748
aF-77.039493
asa(dp2369
g2
I1399076899
sg3
(lp2370
F-12.0691721
aF-77.054862
asa(dp2371
g2
I1873952232
sg3
(lp2372
F-12.0708939
aF-77.0435166
asa(dp2373
g2
I1873952235
sg3
(lp2374
F-12.0709139
aF-77.0434065
asa(dp2375
g2
I660671980
sg3
(lp2376
F-12.0754936
aF-77.0677014
asa(dp2377
g2
I263384559
sg3
(lp2378
F-12.0856798
aF-77.0640661
asa(dp2379
g2
I660671985
sg3
(lp2380
F-12.0738027
aF-77.0675551
asa(dp2381
g2
I263396851
sg3
(lp2382
F-12.0752112
aF-77.0450666
asa(dp2383
g2
I263396852
sg3
(lp2384
F-12.0737975
aF-77.0450549
asa(dp2385
g2
I263396853
sg3
(lp2386
F-12.0730191
aF-77.0450507
asa(dp2387
g2
I263384566
sg3
(lp2388
F-12.0899603
aF-77.0577279
asa(dp2389
g2
I263384567
sg3
(lp2390
F-12.0893284
aF-77.0586485
asa(dp2391
g2
I263384568
sg3
(lp2392
F-12.0886629
aF-77.0596798
asa(dp2393
g2
I1273622009
sg3
(lp2394
F-12.0643119
aF-77.055924
asa(dp2395
g2
I660671994
sg3
(lp2396
F-12.0724385
aF-77.0673872
asa(dp2397
g2
I263384571
sg3
(lp2398
F-12.0874029
aF-77.0616642
asa(dp2399
g2
I1943098876
sg3
(lp2400
F-12.0672299
aF-77.047306
asa(dp2401
g2
I1273900542
sg3
(lp2402
F-12.0726352
aF-77.0571014
asa(dp2403
g2
I638356992
sg3
(lp2404
F-12.0788504
aF-77.0654082
asa(dp2405
g2
I1943098881
sg3
(lp2406
F-12.0844665
aF-77.0615947
asa(dp2407
g2
I1273961987
sg3
(lp2408
F-12.064096
aF-77.0590005
asa(dp2409
g2
I638356998
sg3
(lp2410
F-12.0787078
aF-77.0653372
asa(dp2411
g2
I2209660425
sg3
(lp2412
F-12.08531
aF-77.0485856
asa(dp2413
g2
I1943098890
sg3
(lp2414
F-12.0863231
aF-77.0631258
asa(dp2415
g2
I1943098893
sg3
(lp2416
F-12.0898049
aF-77.0659083
asa(dp2417
g2
I674944534
sg3
(lp2418
F-12.0718689
aF-77.0590405
asa(dp2419
g2
I1943098903
sg3
(lp2420
F-12.0721373
aF-77.0513383
asa(dp2421
g2
I1943098906
sg3
(lp2422
F-12.0740873
aF-77.0530277
asa(dp2423
g2
I4333043231
sg3
(lp2424
F-12.0668322
aF-77.0609183
asa(dp2425
g2
I263384613
sg3
(lp2426
F-12.0920552
aF-77.0588737
asa(dp2427
g2
I263384616
sg3
(lp2428
F-12.0910507
aF-77.0583451
asa(dp2429
g2
I263360041
sg3
(lp2430
F-12.0844452
aF-77.0453114
asa(dp2431
g2
I4334079533
sg3
(lp2432
F-12.0875469
aF-77.0640321
asa(dp2433
g2
I263403102
sg3
(lp2434
F-12.0670692
aF-77.0434256
asa(dp2435
g2
I263386681
sg3
(lp2436
F-12.0900654
aF-77.0611796
asa(dp2437
g2
I263409210
sg3
(lp2438
F-12.0717512
aF-77.0396287
asa(dp2439
g2
I263386683
sg3
(lp2440
F-12.0895457
aF-77.0618101
asa(dp2441
g2
I263386684
sg3
(lp2442
F-12.0885779
aF-77.0630117
asa(dp2443
g2
I263386685
sg3
(lp2444
F-12.0881583
aF-77.0635267
asa(dp2445
g2
I263386686
sg3
(lp2446
F-12.087701
aF-77.0640747
asa(dp2447
g2
I1639104063
sg3
(lp2448
F-12.0845598
aF-77.0424353
asa(dp2449
g2
I1943098944
sg3
(lp2450
F-12.0682117
aF-77.0481078
asa(dp2451
g2
I1428592193
sg3
(lp2452
F-12.0647902
aF-77.0388549
asa(dp2453
g2
I263388738
sg3
(lp2454
F-12.083031
aF-77.0553035
asa(dp2455
g2
I263388739
sg3
(lp2456
F-12.0846055
aF-77.0573609
asa(dp2457
g2
I263384644
sg3
(lp2458
F-12.090995
aF-77.0584283
asa(dp2459
g2
I263388741
sg3
(lp2460
F-12.0835419
aF-77.0577202
asa(dp2461
g2
I4325766726
sg3
(lp2462
F-12.0639553
aF-77.0439461
asa(dp2463
g2
I263384647
sg3
(lp2464
F-12.0920338
aF-77.0589852
asa(dp2465
g2
I4325766731
sg3
(lp2466
F-12.064497
aF-77.0432481
asa(dp2467
g2
I670363212
sg3
(lp2468
F-12.075244
aF-77.0692495
asa(dp2469
g2
I263384653
sg3
(lp2470
F-12.0933624
aF-77.0557695
asa(dp2471
g2
I1943098961
sg3
(lp2472
F-12.0711524
aF-77.0505374
asa(dp2473
g2
I638359123
sg3
(lp2474
F-12.0781883
aF-77.065034
asa(dp2475
g2
I1943098964
sg3
(lp2476
F-12.0692026
aF-77.0489218
asa(dp2477
g2
I3104396886
sg3
(lp2478
F-12.0774633
aF-77.0487777
asa(dp2479
g2
I263403101
sg3
(lp2480
F-12.0680437
aF-77.0442262
asa(dp2481
g2
I263380574
sg3
(lp2482
F-12.0964166
aF-77.0628057
asa(dp2483
g2
I263403103
sg3
(lp2484
F-12.0659823
aF-77.0426159
asa(dp2485
g2
I263403105
sg3
(lp2486
F-12.0648367
aF-77.0419449
asa(dp2487
g2
I263380578
sg3
(lp2488
F-12.0943269
aF-77.0623336
asa(dp2489
g2
I1943098982
sg3
(lp2490
F-12.0671996
aF-77.0473482
asa(dp2491
g2
I1399076796
sg3
(lp2492
F-12.0720563
aF-77.0514394
asa(dp2493
g2
I263384684
sg3
(lp2494
F-12.0929218
aF-77.056669
asa(dp2495
g2
I1943098993
sg3
(lp2496
F-12.0805428
aF-77.0583556
asa(dp2497
g2
I1273517683
sg3
(lp2498
F-12.0636737
aF-77.0588493
asa(dp2499
g2
I263384692
sg3
(lp2500
F-12.0925377
aF-77.0573956
asa(dp2501
g2
I263384693
sg3
(lp2502
F-12.0918418
aF-77.0571349
asa(dp2503
g2
I263108214
sg3
(lp2504
F-12.0923573
aF-77.0344844
asa(dp2505
g2
I263108215
sg3
(lp2506
F-12.0924641
aF-77.0353153
asa(dp2507
g2
I263108216
sg3
(lp2508
F-12.0925785
aF-77.0361201
asa(dp2509
g2
I263108217
sg3
(lp2510
F-12.0926918
aF-77.0369544
asa(dp2511
g2
I263108218
sg3
(lp2512
F-12.0928074
aF-77.0377495
asa(dp2513
g2
I1273798267
sg3
(lp2514
F-12.093268
aF-77.059771
asa(dp2515
g2
I263108220
sg3
(lp2516
F-12.0930555
aF-77.039518
asa(dp2517
g2
I263108221
sg3
(lp2518
F-12.0932747
aF-77.0411326
asa(dp2519
g2
I1273765502
sg3
(lp2520
F-12.0719743
aF-77.0536861
asa(dp2521
g2
I263108223
sg3
(lp2522
F-12.0935101
aF-77.0428051
asa(dp2523
g2
I263108225
sg3
(lp2524
F-12.0938281
aF-77.0450479
asa(dp2525
g2
I263108226
sg3
(lp2526
F-12.0939965
aF-77.0461795
asa(dp2527
g2
I263108227
sg3
(lp2528
F-12.0942983
aF-77.048438
asa(dp2529
g2
I263108228
sg3
(lp2530
F-12.0944665
aF-77.0495783
asa(dp2531
g2
I263108229
sg3
(lp2532
F-12.0946092
aF-77.0505997
asa(dp2533
g2
I263108230
sg3
(lp2534
F-12.0946384
aF-77.0509558
asa(dp2535
g2
I1842306695
sg3
(lp2536
F-12.0675124
aF-77.0575868
asa(dp2537
g2
I3340703368
sg3
(lp2538
F-12.0636039
aF-77.0433443
asa(dp2539
g2
I499773065
sg3
(lp2540
F-12.0677211
aF-77.0715697
asa(dp2541
g2
I1943099023
sg3
(lp2542
F-12.0691702
aF-77.0489619
asa(dp2543
g2
I1273515669
sg3
(lp2544
F-12.0700851
aF-77.0546243
asa(dp2545
g2
I263392918
sg3
(lp2546
F-12.0785859
aF-77.0473705
asa(dp2547
g2
I263392919
sg3
(lp2548
F-12.0741455
aF-77.0529207
asa(dp2549
g2
I263384728
sg3
(lp2550
F-12.0942338
aF-77.0540206
asa(dp2551
g2
I660657434
sg3
(lp2552
F-12.0755778
aF-77.0638743
asa(dp2553
g2
I263360158
sg3
(lp2554
F-12.0805899
aF-77.0417954
asa(dp2555
g2
I263360159
sg3
(lp2556
F-12.0797366
aF-77.0417246
asa(dp2557
g2
I1943099042
sg3
(lp2558
F-12.0805765
aF-77.0583158
asa(dp2559
g2
I263403171
sg3
(lp2560
F-12.0653351
aF-77.0456225
asa(dp2561
g2
I2057539237
sg3
(lp2562
F-12.0730465
aF-77.0572996
asa(dp2563
g2
I263397031
sg3
(lp2564
F-12.0752347
aF-77.044204
asa(dp2565
g2
I874949917
sg3
(lp2566
F-12.0716063
aF-77.0604325
asa(dp2567
g2
I263360179
sg3
(lp2568
F-12.0805071
aF-77.0411703
asa(dp2569
g2
I263360180
sg3
(lp2570
F-12.0797987
aF-77.0412596
asa(dp2571
g2
I263404830
sg3
(lp2572
F-12.0766135
aF-77.0414976
asa(dp2573
g2
I2057539254
sg3
(lp2574
F-12.0732035
aF-77.0618227
asa(dp2575
g2
I2057539256
sg3
(lp2576
F-12.0732769
aF-77.0614546
asa(dp2577
g2
I1355562681
sg3
(lp2578
F-12.0626389
aF-77.048932
asa(dp2579
g2
I263404831
sg3
(lp2580
F-12.0767166
aF-77.0405044
asa(dp2581
g2
I263386813
sg3
(lp2582
F-12.0888955
aF-77.0613036
asa(dp2583
g2
I1355562687
sg3
(lp2584
F-12.0668966
aF-77.0574241
asa(dp2585
g2
I874949920
sg3
(lp2586
F-12.0730776
aF-77.0607496
asa(dp2587
g2
I263384694
sg3
(lp2588
F-12.0908132
aF-77.0567577
asa(dp2589
g2
I263114440
sg3
(lp2590
F-12.0886237
aF-77.035027
asa(dp2591
g2
I263114442
sg3
(lp2592
F-12.0887455
aF-77.0358849
asa(dp2593
g2
I263114443
sg3
(lp2594
F-12.0888548
aF-77.0366965
asa(dp2595
g2
I263114444
sg3
(lp2596
F-12.0889739
aF-77.0375067
asa(dp2597
g2
I263114445
sg3
(lp2598
F-12.0890854
aF-77.0382956
asa(dp2599
g2
I1355562709
sg3
(lp2600
F-12.0657044
aF-77.0532083
asa(dp2601
g2
I263114455
sg3
(lp2602
F-12.0876544
aF-77.0436561
asa(dp2603
g2
I263384793
sg3
(lp2604
F-12.0917374
aF-77.0610227
asa(dp2605
g2
I263114458
sg3
(lp2606
F-12.0876424
aF-77.044511
asa(dp2607
g2
I263114459
sg3
(lp2608
F-12.0883668
aF-77.0493132
asa(dp2609
g2
I263114460
sg3
(lp2610
F-12.0884154
aF-77.0496899
asa(dp2611
g2
I263384801
sg3
(lp2612
F-12.0901594
aF-77.0609981
asa(dp2613
g2
I263384802
sg3
(lp2614
F-12.0894927
aF-77.0607372
asa(dp2615
g2
I263384803
sg3
(lp2616
F-12.0889891
aF-77.0605569
asa(dp2617
g2
I1943098867
sg3
(lp2618
F-12.0606429
aF-77.0419192
asa(dp2619
g2
I1273589372
sg3
(lp2620
F-12.0766156
aF-77.0641566
asa(dp2621
g2
I2057539306
sg3
(lp2622
F-12.0738948
aF-77.0619615
asa(dp2623
g2
I499717867
sg3
(lp2624
F-12.0676355
aF-77.0674788
asa(dp2625
g2
I2057539309
sg3
(lp2626
F-12.0739645
aF-77.061596
asa(dp2627
g2
I2064693885
sg3
(lp2628
F-12.0810635
aF-77.0496357
asa(dp2629
g2
I2057539312
sg3
(lp2630
F-12.0740382
aF-77.058874
asa(dp2631
g2
I1273925981
sg3
(lp2632
F-12.0722571
aF-77.0532642
asa(dp2633
g2
I263403252
sg3
(lp2634
F-12.0662853
aF-77.0464208
asa(dp2635
g2
I799373609
sg3
(lp2636
F-12.067685
aF-77.0546434
asa(dp2637
g2
I263395066
sg3
(lp2638
F-12.0776136
aF-77.0465616
asa(dp2639
g2
I638351099
sg3
(lp2640
F-12.0809956
aF-77.0637495
asa(dp2641
g2
I638351100
sg3
(lp2642
F-12.0806364
aF-77.0634536
asa(dp2643
g2
I263395069
sg3
(lp2644
F-12.0750417
aF-77.0460311
asa(dp2645
g2
I638351102
sg3
(lp2646
F-12.0792685
aF-77.0625655
asa(dp2647
g2
I263395071
sg3
(lp2648
F-12.0727106
aF-77.0459944
asa(dp2649
g2
I263395072
sg3
(lp2650
F-12.0718897
aF-77.0455329
asa(dp2651
g2
I263395073
sg3
(lp2652
F-12.0709129
aF-77.0447329
asa(dp2653
g2
I263395074
sg3
(lp2654
F-12.0700268
aF-77.0439876
asa(dp2655
g2
I4332896004
sg3
(lp2656
F-12.0666888
aF-77.0561353
asa(dp2657
g2
I674944773
sg3
(lp2658
F-12.0747572
aF-77.0592615
asa(dp2659
g2
I660656428
sg3
(lp2660
F-12.0732574
aF-77.0760707
asa(dp2661
g2
I670349073
sg3
(lp2662
F-12.0732158
aF-77.0712679
asa(dp2663
g2
I670349075
sg3
(lp2664
F-12.0719448
aF-77.0710915
asa(dp2665
g2
I2055741205
sg3
(lp2666
F-12.0671758
aF-77.0585094
asa(dp2667
g2
I263386904
sg3
(lp2668
F-12.0881356
aF-77.0626602
asa(dp2669
g2
I263386905
sg3
(lp2670
F-12.0879287
aF-77.0625026
asa(dp2671
g2
I2057539355
sg3
(lp2672
F-12.074668
aF-77.0597106
asa(dp2673
g2
I503693084
sg3
(lp2674
F-12.0803973
aF-77.0655609
asa(dp2675
g2
I263360133
sg3
(lp2676
F-12.0845531
aF-77.0461053
asa(dp2677
g2
I674938657
sg3
(lp2678
F-12.0721637
aF-77.0641999
asa(dp2679
g2
I4333981474
sg3
(lp2680
F-12.0637728
aF-77.0599617
asa(dp2681
g2
I2055741403
sg3
(lp2682
F-12.0690272
aF-77.054836
asa(dp2683
g2
I1842306694
sg3
(lp2684
F-12.0675242
aF-77.0581075
asa(dp2685
g2
I263360294
sg3
(lp2686
F-12.0769754
aF-77.0380447
asa(dp2687
g2
I263360295
sg3
(lp2688
F-12.0759233
aF-77.0382062
asa(dp2689
g2
I263360296
sg3
(lp2690
F-12.0748946
aF-77.0383748
asa(dp2691
g2
I308131626
sg3
(lp2692
F-12.0648723
aF-77.0393052
asa(dp2693
g2
I674944812
sg3
(lp2694
F-12.0779971
aF-77.0563742
asa(dp2695
g2
I308131630
sg3
(lp2696
F-12.0647967
aF-77.0390326
asa(dp2697
g2
I263114543
sg3
(lp2698
F-12.0877948
aF-77.0493884
asa(dp2699
g2
I263386933
sg3
(lp2700
F-12.0877302
aF-77.0631834
asa(dp2701
g2
I263386934
sg3
(lp2702
F-12.087512
aF-77.0630203
asa(dp2703
g2
I799341153
sg3
(lp2704
F-12.0671359
aF-77.0592592
asa(dp2705
g2
I1273450296
sg3
(lp2706
F-12.0720371
aF-77.0641147
asa(dp2707
g2
I263376697
sg3
(lp2708
F-12.0967035
aF-77.0584236
asa(dp2709
g2
I1273591616
sg3
(lp2710
F-12.0651105
aF-77.060344
asa(dp2711
g2
I263386945
sg3
(lp2712
F-12.0887789
aF-77.0649595
asa(dp2713
g2
I182472514
sg3
(lp2714
F-12.0939853
aF-77.0571705
asa(dp2715
g2
I182472515
sg3
(lp2716
F-12.0935627
aF-77.0592532
asa(dp2717
g2
I308131653
sg3
(lp2718
F-12.0650421
aF-77.0389066
asa(dp2719
g2
I1425922019
sg3
(lp2720
F-12.0931067
aF-77.0532865
asa(dp2721
g2
I108171092
sg3
(lp2722
F-12.0724029
aF-77.0363653
asa(dp2723
g2
I263384930
sg3
(lp2724
F-12.0892019
aF-77.0644119
asa(dp2725
g2
I1273896803
sg3
(lp2726
F-12.0868537
aF-77.0595394
asa(dp2727
g2
I263384932
sg3
(lp2728
F-12.0896208
aF-77.0638936
asa(dp2729
g2
I263384933
sg3
(lp2730
F-12.0900985
aF-77.0632827
asa(dp2731
g2
I263384934
sg3
(lp2732
F-12.0902787
aF-77.0630576
asa(dp2733
g2
I263384935
sg3
(lp2734
F-12.0906004
aF-77.0626684
asa(dp2735
g2
I263384936
sg3
(lp2736
F-12.0911125
aF-77.0620246
asa(dp2737
g2
I108171113
sg3
(lp2738
F-12.0882715
aF-77.0340197
asa(dp2739
g2
I108171114
sg3
(lp2740
F-12.088819
aF-77.0339353
asa(dp2741
g2
I108171115
sg3
(lp2742
F-12.0890988
aF-77.0338992
asa(dp2743
g2
I2057539436
sg3
(lp2744
F-12.0786453
aF-77.0567887
asa(dp2745
g2
I108171117
sg3
(lp2746
F-12.0906107
aF-77.0336567
asa(dp2747
g2
I670359123
sg3
(lp2748
F-12.0718458
aF-77.0710701
asa(dp2749
g2
I1273716599
sg3
(lp2750
F-12.0705516
aF-77.0551125
asa(dp2751
g2
I1658531706
sg3
(lp2752
F-12.0828371
aF-77.0377035
asa(dp2753
g2
I1273870210
sg3
(lp2754
F-12.0753993
aF-77.0592098
asa(dp2755
g2
I3743408006
sg3
(lp2756
F-12.0651497
aF-77.0389012
asa(dp2757
g2
I1273644938
sg3
(lp2758
F-12.073052
aF-77.0522668
asa(dp2759
g2
I108064653
sg3
(lp2760
F-12.072386
aF-77.0362139
asa(dp2761
g2
I638359192
sg3
(lp2762
F-12.0777893
aF-77.0629362
asa(dp2763
g2
I2055741330
sg3
(lp2764
F-12.0683882
aF-77.0547664
asa(dp2765
g2
I108064659
sg3
(lp2766
F-12.0696138
aF-77.0366324
asa(dp2767
g2
I1273827220
sg3
(lp2768
F-12.0737448
aF-77.0609022
asa(dp2769
g2
I263387030
sg3
(lp2770
F-12.0884268
aF-77.0618959
asa(dp2771
g2
I263387031
sg3
(lp2772
F-12.0885947
aF-77.0620332
asa(dp2773
g2
I1273705796
sg3
(lp2774
F-12.0882112
aF-77.047602
asa(dp2775
g2
I1273564767
sg3
(lp2776
F-12.0678028
aF-77.0546633
asa(dp2777
g2
I263360418
sg3
(lp2778
F-12.0800642
aF-77.0385979
asa(dp2779
g2
I1273982886
sg3
(lp2780
F-12.0630082
aF-77.0420279
asa(dp2781
g2
I263360423
sg3
(lp2782
F-12.0796528
aF-77.0417185
asa(dp2783
g2
I1273558952
sg3
(lp2784
F-12.0818554
aF-77.0636457
asa(dp2785
g2
I1432367019
sg3
(lp2786
F-12.0892836
aF-77.0572527
asa(dp2787
g2
I1273978797
sg3
(lp2788
F-12.0717687
aF-77.0554366
asa(dp2789
g2
I1273786286
sg3
(lp2790
F-12.0725766
aF-77.0618255
asa(dp2791
g2
I1273819464
sg3
(lp2792
F-12.0721985
aF-77.0483584
asa(dp2793
g2
I1273655219
sg3
(lp2794
F-12.0735053
aF-77.060328
asa(dp2795
g2
I1943099038
sg3
(lp2796
F-12.0806382
aF-77.0583659
asa(dp2797
g2
I1273843638
sg3
(lp2798
F-12.0710817
aF-77.0526555
asa(dp2799
g2
I308131771
sg3
(lp2800
F-12.06474
aF-77.0394285
asa(dp2801
g2
I263385020
sg3
(lp2802
F-12.0905334
aF-77.0591493
asa(dp2803
g2
I263385021
sg3
(lp2804
F-12.090055
aF-77.0598703
asa(dp2805
g2
I263385022
sg3
(lp2806
F-12.0897712
aF-77.0602778
asa(dp2807
g2
I1425921988
sg3
(lp2808
F-12.1012231
aF-77.0574763
asa(dp2809
g2
I1425921994
sg3
(lp2810
F-12.0929549
aF-77.0532094
asa(dp2811
g2
I263376843
sg3
(lp2812
F-12.0966138
aF-77.0583806
asa(dp2813
g2
I1273728972
sg3
(lp2814
F-12.0743032
aF-77.0575034
asa(dp2815
g2
I660658125
sg3
(lp2816
F-12.0757363
aF-77.06374
asa(dp2817
g2
I1273831075
sg3
(lp2818
F-12.0667238
aF-77.0591088
asa(dp2819
g2
I263408974
sg3
(lp2820
F-12.0699014
aF-77.0385743
asa(dp2821
g2
I1273804793
sg3
(lp2822
F-12.08446
aF-77.0416272
asa(dp2823
g2
I263408975
sg3
(lp2824
F-12.0685131
aF-77.0383232
asa(dp2825
g2
I1425922012
sg3
(lp2826
F-12.1012988
aF-77.0575115
asa(dp2827
g2
I1399076831
sg3
(lp2828
F-12.0693897
aF-77.0527591
asa(dp2829
g2
I638353379
sg3
(lp2830
F-12.0802364
aF-77.063137
asa(dp2831
g2
I1399076840
sg3
(lp2832
F-12.0706663
aF-77.0544135
asa(dp2833
g2
I1399076843
sg3
(lp2834
F-12.0707145
aF-77.0540873
asa(dp2835
g2
I1399076844
sg3
(lp2836
F-12.0706762
aF-77.0537655
asa(dp2837
g2
I638359533
sg3
(lp2838
F-12.0781614
aF-77.0619969
asa(dp2839
g2
I2059583470
sg3
(lp2840
F-12.0742458
aF-77.0629063
asa(dp2841
g2
I874949924
sg3
(lp2842
F-12.0744065
aF-77.0610455
asa(dp2843
g2
I1273878512
sg3
(lp2844
F-12.0616206
aF-77.0408913
asa(dp2845
g2
I632692724
sg3
(lp2846
F-12.0862665
aF-77.0632
asa(dp2847
g2
I263360505
sg3
(lp2848
F-12.0803252
aF-77.0423197
asa(dp2849
g2
I1425922042
sg3
(lp2850
F-12.0952712
aF-77.054421
asa(dp2851
g2
I1399076862
sg3
(lp2852
F-12.0718727
aF-77.0542995
asa(dp2853
g2
I1425922047
sg3
(lp2854
F-12.0950813
aF-77.0543218
asa.